(dp1
S'1,5'
p2
F0.00012637432073802604
sS'1,2'
p3
F6.3187160369013022e-05
sS'raladas,'
p4
F6.3187160369013022e-05
sS's/pel'
p5
F3.1593580184506511e-05
sS'800gr'
p6
F3.1593580184506511e-05
sS'picadadinh'
p7
F3.1593580184506511e-05
sS'cm.'
p8
F3.1593580184506511e-05
sS'embalagens'
p9
F9.4780740553519519e-05
sS'am\xc3\xaando'
p10
F3.1593580184506511e-05
sS'tapioc'
p11
F0.00015796790092253255
sS'selet'
p12
F6.3187160369013022e-05
sS'arom\xc3\xa1t'
p13
F3.1593580184506511e-05
sS'"al'
p14
F3.1593580184506511e-05
sS'canel'
p15
F0.00047390370276759761
sS'podre,'
p16
F3.1593580184506511e-05
sS'tucup'
p17
F3.1593580184506511e-05
sS'50ml'
p18
F3.1593580184506511e-05
sS'capelet'
p19
F3.1593580184506511e-05
sS'lingu'
p20
F6.3187160369013022e-05
sS'+/-'
p21
F3.1593580184506511e-05
sS'catchup,'
p22
F3.1593580184506511e-05
sS'(peit'
p23
F3.1593580184506511e-05
sS'batata-ingles'
p24
F3.1593580184506511e-05
sS'usa-l'
p25
F3.1593580184506511e-05
sS'catchup;'
p26
F3.1593580184506511e-05
sS'escarol'
p27
F3.1593580184506511e-05
sS'cogumel'
p28
F0.00063187160369013022
sS'neve;'
p29
F3.1593580184506511e-05
sS"ate'"
p30
F3.1593580184506511e-05
sS'consistent'
p31
F0.00025274864147605209
sS'bacon'
p32
F0.0013585239479337798
sS'10g'
p33
F0.00015796790092253255
sS'bacot'
p34
F3.1593580184506511e-05
sS'grelhados,'
p35
F3.1593580184506511e-05
sS'sement'
p36
F0.0021483634525464425
sS'chei'
p37
F6.3187160369013022e-05
sS'(200gramas)'
p38
F3.1593580184506511e-05
sS'tinto,'
p39
F6.3187160369013022e-05
sS'vitel'
p40
F3.1593580184506511e-05
sS'(ganache)'
p41
F3.1593580184506511e-05
sS'+'
F0.00022115506129154555
sS'pr\xc3\xa9-coz'
p42
F0.00012637432073802604
sS'mergulh'
p43
F6.3187160369013022e-05
sS'tinto;'
p44
F3.1593580184506511e-05
sS'nev'
p45
F0.00041071654239858459
sS'med'
p46
F0.00072665234424364969
sS'reino;'
p47
F3.1593580184506511e-05
sS'mel'
p48
F0.00034752938202957156
sS'extrato)'
p49
F3.1593580184506511e-05
sS'men'
p50
F3.1593580184506511e-05
sS'mei'
p51
F0.0022747377732844688
sS'reino)'
p52
F3.1593580184506511e-05
sS'qualidad'
p53
F9.4780740553519519e-05
sS'sobremesa)'
p54
F3.1593580184506511e-05
sS'100'
p55
F0.0045494755465689376
sS'mex'
p56
F3.1593580184506511e-05
sS'tomate)'
p57
F3.1593580184506511e-05
sS'light)'
p58
F3.1593580184506511e-05
sS'tomate.'
p59
F0.00015796790092253255
sS'light,'
p60
F3.1593580184506511e-05
sS'tomate,'
p61
F0.00012637432073802604
sS'precis'
p62
F6.3187160369013022e-05
sS'jamb'
p63
F6.3187160369013022e-05
sS'tomate;'
p64
F0.00015796790092253255
sS'(depend'
p65
F3.1593580184506511e-05
sS'pr\xc3\xa9-cozido,'
p66
F3.1593580184506511e-05
sS'240gram'
p67
F3.1593580184506511e-05
sS'\xc3\xa1cid'
p68
F0.00015796790092253255
sS'paulist'
p69
F3.1593580184506511e-05
sS'segund'
p70
F9.4780740553519519e-05
sS'pr\xc3\xa9-cozido;'
p71
F3.1593580184506511e-05
sS'shoyu'
p72
F0.00069505876405914313
sS'kg)'
p73
F6.3187160369013022e-05
sS'melanc'
p74
F3.1593580184506511e-05
sS'kg,'
p75
F3.1593580184506511e-05
sS'manjeric\xc3\xa3o.'
p76
F3.1593580184506511e-05
sS'kg.'
p77
F0.00018956148110703904
sS'100gram'
p78
F3.1593580184506511e-05
sS'espinafr'
p79
F0.00031593580184506511
sS'cracker"'
p80
F3.1593580184506511e-05
sS'cottag'
p81
F9.4780740553519519e-05
sS'cald'
p82
F0.0048970049285985088
sS'apar'
p83
F3.1593580184506511e-05
sS'muzzarel'
p84
F3.1593580184506511e-05
sS'pimrnt\xc3\xb5'
p85
F3.1593580184506511e-05
sS'mexer'
p86
F3.1593580184506511e-05
sS'moid'
p87
F0.00031593580184506511
sS'desalg'
p88
F3.1593580184506511e-05
sS'rip'
p89
F3.1593580184506511e-05
sS'vegetal'
p90
F0.00022115506129154555
sS'750'
p91
F0.0002843422216605586
sS'mg'
p92
F3.1593580184506511e-05
sS'mandioc'
p93
F0.0012005560470112473
sS'ml'
p94
F0.0021167698723619358
sS'gouda,'
p95
F3.1593580184506511e-05
sS'l\xc3\xadqu'
p96
F6.3187160369013022e-05
sS'vinagr'
p97
F0.0017060533299633515
sS'feij\xc3\xa3'
p98
F0.00037912296221407808
sS'garfo)'
p99
F3.1593580184506511e-05
sS'(uma)'
p100
F3.1593580184506511e-05
sS"vinha-d'alh"
p101
F3.1593580184506511e-05
sS'cebolinha-verd'
p102
F3.1593580184506511e-05
sS'225g'
p103
F3.1593580184506511e-05
sS'3kg'
p104
F6.3187160369013022e-05
sS'colher(sobremesa)'
p105
F3.1593580184506511e-05
sS'hor'
p106
F0.00015796790092253255
sS'bagaceir'
p107
F3.1593580184506511e-05
sS'(3kg'
p108
F3.1593580184506511e-05
sS'costel'
p109
F0.00037912296221407808
sS'pimenta-d'
p110
F6.3187160369013022e-05
sS'fat'
p111
F0.0029382029571591054
sS'mesm'
p112
F0.00037912296221407808
sS'lat'
p113
F0.0075508656640970555
sS'abacaxi,'
p114
F9.4780740553519519e-05
sS'lav'
p115
F0.00082143308479716917
sS'1,25'
p116
F3.1593580184506511e-05
sS'ovo'
p117
F0.0020219891318084167
sS'estepe,'
p118
F3.1593580184506511e-05
sS'amid'
p119
F0.00094780740553519521
sS'chern'
p120
F3.1593580184506511e-05
sS'pub'
p121
F3.1593580184506511e-05
sS'fungh'
p122
F3.1593580184506511e-05
sS'fresco)'
p123
F6.3187160369013022e-05
sS'soro)'
p124
F9.4780740553519519e-05
sS'soro.'
p125
F3.1593580184506511e-05
sS'fresco.'
p126
F3.1593580184506511e-05
sS'finaliz'
p127
F3.1593580184506511e-05
sS'jerimum'
p128
F3.1593580184506511e-05
sS'(fatiada),'
p129
F3.1593580184506511e-05
sS'milho,'
p130
F3.1593580184506511e-05
sS'avel\xc3\xa3'
p131
F3.1593580184506511e-05
sS'milho.'
p132
F3.1593580184506511e-05
sS'milho)'
p133
F3.1593580184506511e-05
sS'salsih'
p134
F3.1593580184506511e-05
sS'vita'
p135
F3.1593580184506511e-05
sS'vari'
p136
F3.1593580184506511e-05
sS'milho;'
p137
F3.1593580184506511e-05
sS'vida.'
p138
F3.1593580184506511e-05
sS'crep'
p139
F3.1593580184506511e-05
sS','
F0.00025274864147605209
sS'fic'
p140
F3.1593580184506511e-05
sS'crem'
p141
F0.004928598508783015
sS'400'
p142
F0.0010109945659042083
sS'croquet'
p143
F3.1593580184506511e-05
sS'fin'
p144
F0.0020535827119929229
sS'fio'
p145
F0.00018956148110703904
sS'fil'
p146
F0.0014848982686718058
sS'cls'
p147
F3.1593580184506511e-05
sS'ervilhas.'
p148
F3.1593580184506511e-05
sS'ervilhas,'
p149
F3.1593580184506511e-05
sS'(fatiado)'
p150
F6.3187160369013022e-05
sS'barato,'
p151
F3.1593580184506511e-05
sS'gosto;'
p152
F0.00047390370276759761
sS'gosto,'
p153
F3.1593580184506511e-05
sS'm\xc3\xbascul'
p154
F3.1593580184506511e-05
sS'gosto.'
p155
F0.00097940098571970167
sS'farinha.'
p156
F9.4780740553519519e-05
sS'anis'
p157
F3.1593580184506511e-05
sS'40g'
p158
F3.1593580184506511e-05
sS'\xe2\x80\x9cescorrer\xe2\x80\x9d'
p159
F3.1593580184506511e-05
sS'espetinh'
p160
F3.1593580184506511e-05
sS'(compr'
p161
F3.1593580184506511e-05
sS'l'
F9.4780740553519519e-05
sS'extra-virg'
p162
F3.1593580184506511e-05
sS'(salgado)'
p163
F3.1593580184506511e-05
sS'(linguado,'
p164
F3.1593580184506511e-05
sS'arroz'
p165
F0.0025274864147605209
sS'375'
p166
F6.3187160369013022e-05
sS'dour'
p167
F3.1593580184506511e-05
sS'(se'
p168
F9.4780740553519519e-05
sS'ramo)'
p169
F3.1593580184506511e-05
sS'nanic'
p170
F6.3187160369013022e-05
sS'tabletes)'
p171
F3.1593580184506511e-05
sS'gom'
p172
F0.00012637432073802604
sS'capelett'
p173
F0.00012637432073802604
sS'(160g),'
p174
F3.1593580184506511e-05
sS'sopa(cheia)'
p175
F6.3187160369013022e-05
sS'500gr'
p176
F3.1593580184506511e-05
sS'banho-maria,'
p177
F3.1593580184506511e-05
sS'liquidificador)'
p178
F3.1593580184506511e-05
sS'(quir'
p179
F3.1593580184506511e-05
sS'got'
p180
F0.00025274864147605209
sS'azedinh'
p181
F3.1593580184506511e-05
sS'lata)'
p182
F6.3187160369013022e-05
sS'"sop'
p183
F3.1593580184506511e-05
sS'arroz:'
p184
F3.1593580184506511e-05
sS'arroz;'
p185
F6.3187160369013022e-05
sS'arroz,'
p186
F9.4780740553519519e-05
sS'(presunto,'
p187
F3.1593580184506511e-05
sS'ate'
p188
F6.3187160369013022e-05
sS'colorido.'
p189
F3.1593580184506511e-05
sS'lour'
p190
F0.001674459749778845
sS'+-'
p191
F6.3187160369013022e-05
sS'(mioj'
p192
F3.1593580184506511e-05
sS'(100g)'
p193
F6.3187160369013022e-05
sS'chocolat'
p194
F0.0016112725894098319
sS"d'\xc3\xa1gua)"
p195
F3.1593580184506511e-05
sS'(at'
p196
F3.1593580184506511e-05
sS'rasa,'
p197
F3.1593580184506511e-05
sS'1.500g'
p198
F3.1593580184506511e-05
sS'quantidad'
p199
F0.00012637432073802604
sS'(opcional);'
p200
F3.1593580184506511e-05
sS'mussarela.'
p201
F3.1593580184506511e-05
sS'(quatro)'
p202
F0.00012637432073802604
sS'175'
p203
F3.1593580184506511e-05
sS'170'
p204
F6.3187160369013022e-05
sS'\xc3\xa9'
p205
F9.4780740553519519e-05
sS'xic'
p206
F0.0024011120940224946
sS'separadas)'
p207
F3.1593580184506511e-05
sS'jambu'
p208
F3.1593580184506511e-05
sS'\xc3\xa1'
p209
F9.4780740553519519e-05
sS'\xc3\xb1'
p210
F3.1593580184506511e-05
sS'(opcional)'
p211
F0.00078983950461266272
sS'recheio),'
p212
F6.3187160369013022e-05
sS'tod'
p213
F9.4780740553519519e-05
sS'resfri'
p214
F3.1593580184506511e-05
sS'cornichons'
p215
F3.1593580184506511e-05
sS'dend\xc3\xaa;'
p216
F3.1593580184506511e-05
sS'cozida;'
p217
F3.1593580184506511e-05
sS'conserv'
p218
F0.00022115506129154555
sS'abrir'
p219
F3.1593580184506511e-05
sS'geral'
p220
F3.1593580184506511e-05
sS'couve-flor,'
p221
F6.3187160369013022e-05
sS'americano)'
p222
F3.1593580184506511e-05
sS'150ml'
p223
F9.4780740553519519e-05
sS'100gr'
p224
F3.1593580184506511e-05
sS'minut'
p225
F3.1593580184506511e-05
sS'rab'
p226
F6.3187160369013022e-05
sS'ral'
p227
F0.0085302666498167576
sS'ram'
p228
F0.00069505876405914313
sS'adormec'
p229
F6.3187160369013022e-05
sS'ras'
p230
F0.00085302666498167574
sS'fusill'
p231
F3.1593580184506511e-05
sS'colof\xc3\xadf'
p232
F3.1593580184506511e-05
sS'-'
F0.012542651333249083
sS'ricot'
p233
F0.00041071654239858459
sS'legumes;'
p234
F3.1593580184506511e-05
sS'chest'
p235
F6.3187160369013022e-05
sS'chees'
p236
F3.1593580184506511e-05
sS'cominho,'
p237
F3.1593580184506511e-05
sS'(100gr.cada),'
p238
F3.1593580184506511e-05
sS'caj\xc3\xba'
p239
F6.3187160369013022e-05
sS'cubos;'
p240
F0.00015796790092253255
sS'(alho,'
p241
F3.1593580184506511e-05
sS'tomate-cerej'
p242
F3.1593580184506511e-05
sS'(tritur'
p243
F3.1593580184506511e-05
sS'macinh'
p244
F3.1593580184506511e-05
sS'cubos,'
p245
F3.1593580184506511e-05
sS'cebola,'
p246
F0.00022115506129154555
sS'metad'
p247
F9.4780740553519519e-05
sS'(300g)'
p248
F3.1593580184506511e-05
sS'refog'
p249
F9.4780740553519519e-05
sS'doc'
p250
F0.00037912296221407808
sS'dog'
p251
F3.1593580184506511e-05
sS'quiab'
p252
F0.00012637432073802604
sS'floc'
p253
F0.00015796790092253255
sS'dos'
p254
F9.4780740553519519e-05
sS'(200g).'
p255
F3.1593580184506511e-05
sS'seco:'
p256
F3.1593580184506511e-05
sS'desfiado,'
p257
F6.3187160369013022e-05
sS'cabec'
p258
F0.00025274864147605209
sS'laranj'
p259
F0.00078983950461266272
sS'(algas)'
p260
F3.1593580184506511e-05
sS'(frang'
p261
F3.1593580184506511e-05
sS'malagueta,'
p262
F6.3187160369013022e-05
sS'desfiado;'
p263
F3.1593580184506511e-05
sS'seco,'
p264
F9.4780740553519519e-05
sS'salm\xc3\xa3'
p265
F0.00022115506129154555
sS'x\xc3\xadcara(ch\xc3\xa1)'
p266
F6.3187160369013022e-05
sS'temperado.'
p267
F3.1593580184506511e-05
sS'gramas);'
p268
F3.1593580184506511e-05
sS'cenour'
p269
F0.0021799570327309492
sS'cupim'
p270
F9.4780740553519519e-05
sS'gramas),'
p271
F3.1593580184506511e-05
sS'(ral'
p272
F3.1593580184506511e-05
sS'em:'
p273
F9.4780740553519519e-05
sS'dl'
p274
F6.3187160369013022e-05
sS'petit'
p275
F3.1593580184506511e-05
sS'oliva,'
p276
F9.4780740553519519e-05
sS'bat'
p277
F0.0014217111083027929
sS'oliva.'
p278
F6.3187160369013022e-05
sS'caf\xc3\xa9,'
p279
F9.4780740553519519e-05
sS'sementes),'
p280
F3.1593580184506511e-05
sS'batido;'
p281
F3.1593580184506511e-05
sS'cristaliz'
p282
F6.3187160369013022e-05
sS'estrag\xc3\xa3'
p283
F3.1593580184506511e-05
sS'caju)'
p284
F3.1593580184506511e-05
sS'cora\xc3\xa7\xc3\xa3'
p285
F9.4780740553519519e-05
sS'caboti'
p286
F0.00012637432073802604
sS'pizz'
p287
F3.1593580184506511e-05
sS'presunt'
p288
F0.0015164918488563123
sS'dilu\xc3\xadd'
p289
F0.00025274864147605209
sS'cora\xc3\xa7\xc3\xb5'
p290
F3.1593580184506511e-05
sS'02'
p291
F0.0010425881460887148
sS'pastel'
p292
F3.1593580184506511e-05
sS'(bo'
p293
F3.1593580184506511e-05
sS'01'
p294
F0.0020535827119929229
sS'06'
p295
F0.00012637432073802604
sS'07'
p296
F3.1593580184506511e-05
sS'04'
p297
F0.00034752938202957156
sS'05'
p298
F0.00015796790092253255
sS'lagost'
p299
F6.3187160369013022e-05
sS'atum'
p300
F0.0004423101225830911
sS'(temperatur'
p301
F3.1593580184506511e-05
sS'360'
p302
F3.1593580184506511e-05
sS'parmess\xc3\xa3'
p303
F3.1593580184506511e-05
sS'\xc3\xa1cida)'
p304
F3.1593580184506511e-05
sS'(soment'
p305
F6.3187160369013022e-05
sS'milharin'
p306
F3.1593580184506511e-05
sS'cop'
p307
F0.0043283204852773913
sS'camar\xc3\xb5'
p308
F0.00025274864147605209
sS'cot'
p309
F3.1593580184506511e-05
sS'conch'
p310
F9.4780740553519519e-05
sS'cox'
p311
F0.00056868444332111719
sS'coz'
p312
F0.0043599140654618984
sS'(pouco)'
p313
F3.1593580184506511e-05
sS'vermelh'
p314
F0.00199039555162391
sS'margarin'
p315
F0.0035068874004802225
sS'coc'
p316
F0.0017692404903323644
sS'boi,'
p317
F3.1593580184506511e-05
sS'1colherinh'
p318
F3.1593580184506511e-05
sS'uni'
p319
F0.00022115506129154555
sS'linguic'
p320
F0.0011057753064577277
sS'maiones'
p321
F0.0014533046884872994
sS'com'
p322
F3.1593580184506511e-05
sS'col'
p323
F3.1593580184506511e-05
sS'reino,'
p324
F0.0002843422216605586
sS'visivel'
p325
F3.1593580184506511e-05
sS'parafus'
p326
F0.00012637432073802604
sS'~it'
p327
F3.1593580184506511e-05
sS'inhame,'
p328
F3.1593580184506511e-05
sS'250'
p329
F0.001674459749778845
sS'panel'
p330
F0.00018956148110703904
sS'embalag'
p331
F0.001674459749778845
sS'bacalhau'
p332
F0.0004423101225830911
sS'tint'
p333
F0.00063187160369013022
sS'300gr'
p334
F6.3187160369013022e-05
sS'fri'
p335
F0.00018956148110703904
sS'(descascadas)'
p336
F3.1593580184506511e-05
sS'.'
F0.001548085429040819
sS'miudinh'
p337
F3.1593580184506511e-05
sS'caldo)'
p338
F3.1593580184506511e-05
sS'(queij'
p339
F9.4780740553519519e-05
sS'(sobremesa)'
p340
F0.0004423101225830911
sS'enpan'
p341
F3.1593580184506511e-05
sS'p\xc3\xa3o.'
p342
F3.1593580184506511e-05
sS'900'
p343
F3.1593580184506511e-05
sS'picadinhos.'
p344
F3.1593580184506511e-05
sS'esteriliz'
p345
F3.1593580184506511e-05
sS'(temper'
p346
F3.1593580184506511e-05
sS'colheres,'
p347
F0.00072665234424364969
sS'suav'
p348
F3.1593580184506511e-05
sS'picanh'
p349
F0.00025274864147605209
sS'manjeric\xc3\xa3'
p350
F0.00085302666498167574
sS'aip'
p351
F9.4780740553519519e-05
sS'220g'
p352
F3.1593580184506511e-05
sS'anchov'
p353
F0.00012637432073802604
sS'k'
F9.4780740553519519e-05
sS'300g)'
p354
F3.1593580184506511e-05
sS'cubo).'
p355
F3.1593580184506511e-05
sS'\xe2\x80\x9cdend'
p356
F3.1593580184506511e-05
sS'ir'
p357
F3.1593580184506511e-05
sS'necess\xc3\xa1rio)'
p358
F6.3187160369013022e-05
sS'p\xc3\xa9tal'
p359
F0.00018956148110703904
sS'vongole,'
p360
F3.1593580184506511e-05
sS'usa-lo.'
p361
F3.1593580184506511e-05
sS'cebol'
p362
F0.01402754960192089
sS'ambiente)'
p363
F3.1593580184506511e-05
sS'parmes\xc3\xa3'
p364
F0.00262226715531404
sS'picl'
p365
F0.00015796790092253255
sS'd\xe2\x80\x99alhos:'
p366
F3.1593580184506511e-05
sS'or\xc3\xa9gano;'
p367
F3.1593580184506511e-05
sS'receit'
p368
F3.1593580184506511e-05
sS'miol'
p369
F0.00018956148110703904
sS'80g'
p370
F3.1593580184506511e-05
sS'pudim'
p371
F6.3187160369013022e-05
sS'or\xc3\xa9gano.'
p372
F3.1593580184506511e-05
sS'or\xc3\xa9gano,'
p373
F0.00018956148110703904
sS'quant'
p374
F0.002306331353468975
sS'(cebolinh'
p375
F6.3187160369013022e-05
sS'coolh'
p376
F3.1593580184506511e-05
sS'complet'
p377
F0.00015796790092253255
sS'aipim'
p378
F9.4780740553519519e-05
sS'mexerica,'
p379
F3.1593580184506511e-05
sS'mussarela;'
p380
F6.3187160369013022e-05
sS'tritur'
p381
F0.00015796790092253255
sS'batatas-doc'
p382
F3.1593580184506511e-05
sS'refin'
p383
F0.00022115506129154555
sS'kib'
p384
F3.1593580184506511e-05
sS'garraf'
p385
F0.00025274864147605209
sS'(par'
p386
F0.00034752938202957156
sS'esmigalh'
p387
F9.4780740553519519e-05
sS'(produt'
p388
F3.1593580184506511e-05
sS'primeir'
p389
F9.4780740553519519e-05
sS'algum'
p390
F0.00012637432073802604
sS'(salsa,'
p391
F3.1593580184506511e-05
sS'cebola;'
p392
F3.1593580184506511e-05
sS'itaiqu'
p393
F3.1593580184506511e-05
sS'cebola.'
p394
F3.1593580184506511e-05
sS'800'
p395
F0.00022115506129154555
sS'ingl\xc3\xaas'
p396
F0.00056868444332111719
sS'molho:'
p397
F6.3187160369013022e-05
sS'lacinho,'
p398
F3.1593580184506511e-05
sS'(americanos)'
p399
F3.1593580184506511e-05
sS'molho.'
p400
F3.1593580184506511e-05
sS'firme.'
p401
F3.1593580184506511e-05
sS'molho)'
p402
F6.3187160369013022e-05
sS'bolonhes'
p403
F3.1593580184506511e-05
sS'maisen'
p404
F0.00066346518387463667
sS'antes'
p405
F3.1593580184506511e-05
sS'jil\xc3\xb3s'
p406
F3.1593580184506511e-05
sS'farel'
p407
F9.4780740553519519e-05
sS'esmagado,'
p408
F3.1593580184506511e-05
sS'gost'
p409
F0.015702009351699735
sS'royal'
p410
F0.00015796790092253255
sS'limpo;'
p411
F3.1593580184506511e-05
sS'verdes;'
p412
F3.1593580184506511e-05
sS'hortel\xc3\xa3'
p413
F0.00050549728295210417
sS'sal;'
p414
F0.00031593580184506511
sS'polvilh'
p415
F0.00072665234424364969
sS'verdes,'
p416
F0.00025274864147605209
sS'mioj'
p417
F6.3187160369013022e-05
sS'pinh\xc3\xa3'
p418
F0.00015796790092253255
sS'batata)'
p419
F3.1593580184506511e-05
sS'batata,'
p420
F3.1593580184506511e-05
sS'maduro,'
p421
F3.1593580184506511e-05
sS'2kg.'
p422
F3.1593580184506511e-05
sS'alich'
p423
F3.1593580184506511e-05
sS'saz\xc3\xb3n'
p424
F3.1593580184506511e-05
sS'50'
p425
F0.0014533046884872994
sS'noz-mosc'
p426
F0.00050549728295210417
sS'5.'
p427
F3.1593580184506511e-05
sS'cavala),'
p428
F3.1593580184506511e-05
sS'fritur'
p429
F3.1593580184506511e-05
sS'rosa;'
p430
F3.1593580184506511e-05
sS'70gram'
p431
F3.1593580184506511e-05
sS'soja)'
p432
F6.3187160369013022e-05
sS'(miojo)'
p433
F3.1593580184506511e-05
sS'peru...)'
p434
F3.1593580184506511e-05
sS'peperoncin'
p435
F3.1593580184506511e-05
sS'berinjelas,'
p436
F3.1593580184506511e-05
sS'louro)'
p437
F3.1593580184506511e-05
sS'carne-de-sol'
p438
F3.1593580184506511e-05
sS'1x\xc3\xadc'
p439
F6.3187160369013022e-05
sS'manjeric\xc3\xa3o,'
p440
F9.4780740553519519e-05
sS'(acrescent'
p441
F3.1593580184506511e-05
sS'frut'
p442
F0.00015796790092253255
sS'maracuj'
p443
F0.0002843422216605586
sS'fog'
p444
F6.3187160369013022e-05
sS'uma'
p445
F0.00012637432073802604
sS'lua)'
p446
F3.1593580184506511e-05
sS'cord'
p447
F3.1593580184506511e-05
sS'mandioquinh'
p448
F0.00031593580184506511
sS'damasc'
p449
F6.3187160369013022e-05
sS'cort'
p450
F0.0075192720839125492
sS'tomilho.'
p451
F6.3187160369013022e-05
sS'mini-salsich'
p452
F3.1593580184506511e-05
sS'coloqu'
p453
F0.00012637432073802604
sS'post'
p454
F0.00025274864147605209
sS'luas'
p455
F3.1593580184506511e-05
sS'p.s:'
p456
F3.1593580184506511e-05
sS'(cort'
p457
F0.00012637432073802604
sS'produt'
p458
F3.1593580184506511e-05
sS'o'
F3.1593580184506511e-05
sS'(derret'
p459
F3.1593580184506511e-05
sS'(500gramas)'
p460
F3.1593580184506511e-05
sS'polvilhar;'
p461
F6.3187160369013022e-05
sS'um,'
p462
F3.1593580184506511e-05
sS'curry'
p463
F0.00015796790092253255
sS'toicinh'
p464
F3.1593580184506511e-05
sS'm\xc3\xa9dia,'
p465
F9.4780740553519519e-05
sS'soc'
p466
F0.0002843422216605586
sS'geladeir'
p467
F6.3187160369013022e-05
sS'(um'
p468
F3.1593580184506511e-05
sS'soj'
p469
F0.00047390370276759761
sS'sol'
p470
F6.3187160369013022e-05
sS'sop'
p471
F0.015638822191330722
sS'sor'
p472
F0.0004423101225830911
sS'ferv'
p473
F0.00018956148110703904
sS'(6gr.)'
p474
F3.1593580184506511e-05
sS'ole'
p475
F0.00037912296221407808
sS'porco)'
p476
F3.1593580184506511e-05
sS'porco,'
p477
F0.00015796790092253255
sS'porco.'
p478
F3.1593580184506511e-05
sS'x\xc3\xadcara.'
p479
F0.00056868444332111719
sS'carnud'
p480
F3.1593580184506511e-05
sS'tucunar\xc3\xa9.'
p481
F3.1593580184506511e-05
sS'porco;'
p482
F3.1593580184506511e-05
sS'tamp'
p483
F9.4780740553519519e-05
sS'japones'
p484
F6.3187160369013022e-05
sS'forn'
p485
F0.00012637432073802604
sS'form'
p486
F0.00041071654239858459
sS'robal'
p487
F3.1593580184506511e-05
sS'katchup'
p488
F6.3187160369013022e-05
sS'farinh'
p489
F0.0092885125742449143
sS'trut'
p490
F3.1593580184506511e-05
sS'(vermelho,'
p491
F3.1593580184506511e-05
sS'225'
p492
F9.4780740553519519e-05
sS'girassol'
p493
F3.1593580184506511e-05
sS'(sop'
p494
F6.3187160369013022e-05
sS'fort'
p495
F0.00015796790092253255
sS'pesc'
p496
F0.00012637432073802604
sS'palh'
p497
F0.0002843422216605586
sS'malaguet'
p498
F0.00025274864147605209
sS'br\xc3\xb3colis,'
p499
F6.3187160369013022e-05
sS'mo\xc3\xaddo)'
p500
F3.1593580184506511e-05
sS'(fundo)'
p501
F0.00012637432073802604
sS'temper'
p502
F0.0018008340705168711
sS'cacau'
p503
F9.4780740553519519e-05
sS'gramas)'
p504
F0.00034752938202957156
sS'moer,'
p505
F3.1593580184506511e-05
sS'(batat'
p506
F3.1593580184506511e-05
sS'trig'
p507
F0.0058132187539491975
sS'equivalente.'
p508
F3.1593580184506511e-05
sS'tost'
p509
F6.3187160369013022e-05
sS'molh'
p510
F0.0050549728295210417
sS'dent'
p511
F0.0080247693668646525
sS'trip'
p512
F0.00018956148110703904
sS'(pod'
p513
F0.00018956148110703904
sS'provolone,'
p514
F3.1593580184506511e-05
sS'200ml'
p515
F0.00018956148110703904
sS'tip'
p516
F0.00085302666498167574
sS'mostarda;'
p517
F6.3187160369013022e-05
sS'tir'
p518
F0.0016112725894098319
sS'povilhar)'
p519
F3.1593580184506511e-05
sS'mostarda.'
p520
F3.1593580184506511e-05
sS'(picado)'
p521
F3.1593580184506511e-05
sS'esfri'
p522
F3.1593580184506511e-05
sS'escald'
p523
F9.4780740553519519e-05
sS'diet'
p524
F9.4780740553519519e-05
sS'alguns'
p525
F6.3187160369013022e-05
sS'15g'
p526
F3.1593580184506511e-05
sS'pequ'
p527
F3.1593580184506511e-05
sS'250g'
p528
F0.00037912296221407808
sS'picado,'
p529
F3.1593580184506511e-05
sS'picado.'
p530
F6.3187160369013022e-05
sS'br\xc3\xb3col'
p531
F0.00037912296221407808
sS'tamb\xc3\xa9m:'
p532
F3.1593580184506511e-05
sS'picado;'
p533
F0.00015796790092253255
sS'400g'
p534
F0.00018956148110703904
sS'enrolar,'
p535
F3.1593580184506511e-05
sS'patinh'
p536
F0.00022115506129154555
sS'caqu'
p537
F3.1593580184506511e-05
sS'vermelhos,'
p538
F0.00012637432073802604
sS'rox'
p539
F0.00015796790092253255
sS'ros'
p540
F0.00015796790092253255
sS'milh'
p541
F0.0029066093769745988
sS'd\xc3\xaa'
p542
F3.1593580184506511e-05
sS'kirsch,'
p543
F3.1593580184506511e-05
sS'(funghi)'
p544
F3.1593580184506511e-05
sS'comum'
p545
F0.00015796790092253255
sS'azeiton'
p546
F0.0027170478958675596
sS'grill'
p547
F3.1593580184506511e-05
sS'derret'
p548
F0.00025274864147605209
sS'alcatr'
p549
F0.00015796790092253255
sS'mistur'
p550
F0.00025274864147605209
sS'cada)'
p551
F9.4780740553519519e-05
sS'cada.'
p552
F3.1593580184506511e-05
sS'cada,'
p553
F3.1593580184506511e-05
sS'(umedec'
p554
F3.1593580184506511e-05
sS'(20g)'
p555
F3.1593580184506511e-05
sS'dia'
p556
F3.1593580184506511e-05
sS'dic'
p557
F3.1593580184506511e-05
sS'(duas)'
p558
F0.00012637432073802604
sS'24rodel'
p559
F3.1593580184506511e-05
sS'vinagret'
p560
F3.1593580184506511e-05
sS'vinagreir'
p561
F3.1593580184506511e-05
sS'porc'
p562
F0.0012321496271957538
sS'descasc'
p563
F0.0011057753064577277
sS'cost'
p564
F3.1593580184506511e-05
sS'salm\xc3\xa3o,'
p565
F3.1593580184506511e-05
sS'(qtd)'
p566
F0.00015796790092253255
sS'meio,'
p567
F6.3187160369013022e-05
sS'port'
p568
F6.3187160369013022e-05
sS'70ml'
p569
F6.3187160369013022e-05
sS'bovin'
p570
F9.4780740553519519e-05
sS'rum'
p571
F9.4780740553519519e-05
sS'50gr'
p572
F3.1593580184506511e-05
sS'dedo-de-mo\xc3\xa7a,'
p573
F6.3187160369013022e-05
sS'400gr'
p574
F3.1593580184506511e-05
sS'dedo-de-moc'
p575
F9.4780740553519519e-05
sS'vinagre;'
p576
F3.1593580184506511e-05
sS'melhor'
p577
F3.1593580184506511e-05
sS'charqu'
p578
F0.00012637432073802604
sS'ninh'
p579
F3.1593580184506511e-05
sS'vinagre,'
p580
F0.00015796790092253255
sS'alhos-por'
p581
F3.1593580184506511e-05
sS'repolh'
p582
F0.00025274864147605209
sS'buch'
p583
F3.1593580184506511e-05
sS'lagarto);'
p584
F3.1593580184506511e-05
sS'16rodel'
p585
F6.3187160369013022e-05
sS'ded'
p586
F0.00091621382535068876
sS'boi'
p587
F0.0002843422216605586
sS'pimenta,'
p588
F0.00015796790092253255
sS'bol'
p589
F0.00018956148110703904
sS'(mandioquinha)'
p590
F6.3187160369013022e-05
sS'agulh'
p591
F3.1593580184506511e-05
sS'afervent'
p592
F0.00018956148110703904
sS'marrons'
p593
F6.3187160369013022e-05
sS'430'
p594
F3.1593580184506511e-05
sS'caroc'
p595
F0.00047390370276759761
sS'reg'
p596
F6.3187160369013022e-05
sS'cabrit'
p597
F3.1593580184506511e-05
sS'extra'
p598
F0.00025274864147605209
sS'finas;'
p599
F3.1593580184506511e-05
sS'prefer'
p600
F3.1593580184506511e-05
sS'previ'
p601
F6.3187160369013022e-05
sS'molhar:'
p602
F3.1593580184506511e-05
sS'b\xc3\xbafal'
p603
F6.3187160369013022e-05
sS'esprem'
p604
F0.00047390370276759761
sS'palitinh'
p605
F3.1593580184506511e-05
sS'finas,'
p606
F3.1593580184506511e-05
sS'osso'
p607
F0.00022115506129154555
sS'(du'
p608
F3.1593580184506511e-05
sS'galinha;'
p609
F3.1593580184506511e-05
sS'(de'
p610
F0.0010741817262732213
sS'(da'
p611
F6.3187160369013022e-05
sS'pont'
p612
F0.00015796790092253255
sS'milho(maisena)'
p613
F3.1593580184506511e-05
sS'pret'
p614
F0.0010425881460887148
sS'galinha.'
p615
F6.3187160369013022e-05
sS'licor'
p616
F0.00015796790092253255
sS'polvilhar.'
p617
F9.4780740553519519e-05
sS'rosca,'
p618
F3.1593580184506511e-05
sS'rosca)'
p619
F3.1593580184506511e-05
sS'or\xc3\xa9gan'
p620
F0.0015796790092253254
sS'spaghett'
p621
F3.1593580184506511e-05
sS'rosca;'
p622
F6.3187160369013022e-05
sS'preferir.'
p623
F6.3187160369013022e-05
sS'flores)'
p624
F3.1593580184506511e-05
sS'cas'
p625
F0.00012637432073802604
sS'prepar'
p626
F3.1593580184506511e-05
sS'cat'
p627
F3.1593580184506511e-05
sS'cam'
p628
F0.0012005560470112473
sS'caf'
p629
F0.00078983950461266272
sS'cad'
p630
F9.4780740553519519e-05
sS'450g'
p631
F3.1593580184506511e-05
sS'legum'
p632
F0.00075824592442815615
sS'papaterr'
p633
F3.1593580184506511e-05
sS'(m\xc3\xa9dios)'
p634
F3.1593580184506511e-05
sS'(120'
p635
F3.1593580184506511e-05
sS'carne-sec'
p636
F6.3187160369013022e-05
sS'chil'
p637
F3.1593580184506511e-05
sS'mignon)'
p638
F3.1593580184506511e-05
sS'mignon,'
p639
F3.1593580184506511e-05
sS'pinh'
p640
F3.1593580184506511e-05
sS'novamente.'
p641
F3.1593580184506511e-05
sS'manteiga;'
p642
F0.00012637432073802604
sS'ping'
p643
F6.3187160369013022e-05
sS'1'
F0.080500442310122586
sS'(ded'
p644
F3.1593580184506511e-05
sS's/'
p645
F0.00022115506129154555
sS'pr\xc3\xa9-'
p646
F3.1593580184506511e-05
sS'agri\xc3\xa3o,'
p647
F3.1593580184506511e-05
sS'manteiga.'
p648
F3.1593580184506511e-05
sS'manteiga,'
p649
F6.3187160369013022e-05
sS'champinhon'
p650
F3.1593580184506511e-05
sS'mar'
p651
F9.4780740553519519e-05
sS'140'
p652
F3.1593580184506511e-05
sS'gelatin'
p653
F0.00063187160369013022
sS'mac'
p654
F0.0017376469101478579
sS'castanhas-do-p'
p655
F3.1593580184506511e-05
sS'mal'
p656
F3.1593580184506511e-05
sS'p\xc3\xb3;'
p657
F6.3187160369013022e-05
sS',e'
p658
F3.1593580184506511e-05
sS'natural'
p659
F0.00031593580184506511
sS'menos)'
p660
F3.1593580184506511e-05
sS'(charque)'
p661
F3.1593580184506511e-05
sS'frang'
p662
F0.003664855301402755
sS'mascav'
p663
F0.00031593580184506511
sS'p\xc3\xb3.'
p664
F0.00012637432073802604
sS'p\xc3\xb3,'
p665
F3.1593580184506511e-05
sS'caro\xc3\xa7o,'
p666
F0.00012637432073802604
sS"p\xc3\xb3'"
p667
F3.1593580184506511e-05
sS'pir\xc3\xa3'
p668
F6.3187160369013022e-05
sS'anterior'
p669
F3.1593580184506511e-05
sS'150grs'
p670
F3.1593580184506511e-05
sS'assadeir'
p671
F3.1593580184506511e-05
sS'colh'
p672
F0.041419183621888032
sS'empan'
p673
F0.00037912296221407808
sS'mineiro)'
p674
F3.1593580184506511e-05
sS'maiores,'
p675
F3.1593580184506511e-05
sS'jil'
p676
F3.1593580184506511e-05
sS'hot'
p677
F3.1593580184506511e-05
sS'bacon.'
p678
F3.1593580184506511e-05
sS'(1kg'
p679
F3.1593580184506511e-05
sS'torr'
p680
F0.00025274864147605209
sS'descongel'
p681
F3.1593580184506511e-05
sS'cereja,'
p682
F6.3187160369013022e-05
sS'nom'
p683
F3.1593580184506511e-05
sS'1,5kg'
p684
F3.1593580184506511e-05
sS'tofu'
p685
F3.1593580184506511e-05
sS'decora\xc3\xa7\xc3\xa3o)'
p686
F3.1593580184506511e-05
sS'col.'
p687
F0.0013901175281182863
sS'madur'
p688
F0.00072665234424364969
sS'noz'
p689
F0.00075824592442815615
sS'nov'
p690
F0.00012637432073802604
sS'ketchup'
p691
F0.00015796790092253255
sS'nor'
p692
F3.1593580184506511e-05
sS'240g'
p693
F3.1593580184506511e-05
sS'frango)'
p694
F3.1593580184506511e-05
sS'frango,'
p695
F9.4780740553519519e-05
sS'oliv'
p696
F0.0024958928345760142
sS'separ'
p697
F6.3187160369013022e-05
sS'frango;'
p698
F3.1593580184506511e-05
sS'beterrab'
p699
F0.00022115506129154555
sS'a\xc3\xa7afro'
p700
F3.1593580184506511e-05
sS'terr'
p701
F9.4780740553519519e-05
sS'ca\xc3\xa7\xc3\xa3'
p702
F0.00015796790092253255
sS'leitoa:'
p703
F3.1593580184506511e-05
sS'ferro)'
p704
F3.1593580184506511e-05
sS'x\xc3\xadcac'
p705
F3.1593580184506511e-05
sS'leitoa.'
p706
F3.1593580184506511e-05
sS'cobr'
p707
F3.1593580184506511e-05
sS'hora.'
p708
F3.1593580184506511e-05
sS'100g'
p709
F0.00072665234424364969
sS'm\xc3\xa9dias,'
p710
F6.3187160369013022e-05
sS'450gr;'
p711
F3.1593580184506511e-05
sS'grosso;'
p712
F3.1593580184506511e-05
sS'escur'
p713
F6.3187160369013022e-05
sS'envelop'
p714
F0.00072665234424364969
sS'sobremes'
p715
F0.00072665234424364969
sS'pimenta-de-cheir'
p716
F3.1593580184506511e-05
sS'carn'
p717
F0.00461266270693795
sS'gir'
p718
F3.1593580184506511e-05
sS'sabor'
p719
F0.00085302666498167574
sS'italiano;'
p720
F3.1593580184506511e-05
sS'l\xc3\xadngu'
p721
F6.3187160369013022e-05
sS'(sal,'
p722
F3.1593580184506511e-05
sS'punh'
p723
F3.1593580184506511e-05
sS'italiano,'
p724
F3.1593580184506511e-05
sS'munguz'
p725
F3.1593580184506511e-05
sS'chouric'
p726
F6.3187160369013022e-05
sS'pequenas,'
p727
F0.00012637432073802604
sS'esmag'
p728
F3.1593580184506511e-05
sS'cravos.'
p729
F3.1593580184506511e-05
sS'ac\xc3\xa9m'
p730
F6.3187160369013022e-05
sS'pele;'
p731
F3.1593580184506511e-05
sS'gemas;'
p732
F3.1593580184506511e-05
sS'mo\xc3\xa7a,'
p733
F3.1593580184506511e-05
sS'mignon'
p734
F0.00034752938202957156
sS'patinho)'
p735
F3.1593580184506511e-05
sS'mignom'
p736
F3.1593580184506511e-05
sS'pele)'
p737
F6.3187160369013022e-05
sS'gemas,'
p738
F3.1593580184506511e-05
sS'gemas)'
p739
F3.1593580184506511e-05
sS'pele,'
p740
F0.00012637432073802604
sS'(170g)'
p741
F3.1593580184506511e-05
sS'pele.'
p742
F3.1593580184506511e-05
sS'escorr'
p743
F0.00085302666498167574
sS'2'
F0.035890307089599394
sS'r\xc3\xbacul'
p744
F0.00012637432073802604
sS'carne;'
p745
F0.00012637432073802604
sS'cubinh'
p746
F0.0021799570327309492
sS'coentr'
p747
F0.0010741817262732213
sS'quas'
p748
F3.1593580184506511e-05
sS'cogumelos,'
p749
F3.1593580184506511e-05
sS'carne,'
p750
F9.4780740553519519e-05
sS'quak'
p751
F3.1593580184506511e-05
sS'garoup'
p752
F6.3187160369013022e-05
sS'10'
p753
F0.00082143308479716917
sS'13'
p754
F3.1593580184506511e-05
sS'12'
p755
F0.00050549728295210417
sS'15'
p756
F0.0002843422216605586
sS'14'
p757
F3.1593580184506511e-05
sS'17'
p758
F6.3187160369013022e-05
sS'16'
p759
F0.00022115506129154555
sS'torrada,'
p760
F3.1593580184506511e-05
sS'(dispens'
p761
F3.1593580184506511e-05
sS'pur\xc3\xaa)'
p762
F3.1593580184506511e-05
sS'molde.'
p763
F3.1593580184506511e-05
sS'(caf\xc3\xa9)'
p764
F0.00088462024516618219
sS'(pernil'
p765
F3.1593580184506511e-05
sS'alcaparr'
p766
F0.00025274864147605209
sS'aproxim'
p767
F0.00018956148110703904
sS'mimos'
p768
F3.1593580184506511e-05
sS'1/'
p769
F3.1593580184506511e-05
sS'1.'
p770
F6.3187160369013022e-05
sS'ane'
p771
F6.3187160369013022e-05
sS'mi\xc3\xbad'
p772
F0.00037912296221407808
sS'pra'
p773
F3.1593580184506511e-05
sS'sal'
p774
F0.020377859219006696
sS'(separ'
p775
F3.1593580184506511e-05
sS'hidrogen'
p776
F3.1593580184506511e-05
sS'20g'
p777
F9.4780740553519519e-05
sS'cubinhos,'
p778
F3.1593580184506511e-05
sS'cubinhos.'
p779
F0.00012637432073802604
sS'lagarto;'
p780
F3.1593580184506511e-05
sS'sal)'
p781
F3.1593580184506511e-05
sS'levement'
p782
F3.1593580184506511e-05
sS'sal,'
p783
F0.0012321496271957538
sS'sal.'
p784
F0.00034752938202957156
sS'tulip'
p785
F3.1593580184506511e-05
sS'erva-doc'
p786
F3.1593580184506511e-05
sS'alfavac'
p787
F3.1593580184506511e-05
sS'minissuspir'
p788
F3.1593580184506511e-05
sS'ideal'
p789
F3.1593580184506511e-05
sS'(um)'
p790
F0.00018956148110703904
sS'qualidade)'
p791
F6.3187160369013022e-05
sS'linguicinh'
p792
F3.1593580184506511e-05
sS'1,700'
p793
F3.1593580184506511e-05
sS'200'
p794
F0.0036332617212182484
sS'normal'
p795
F3.1593580184506511e-05
sS'p\xc3\xb3'
p796
F0.00334891949955769
sS'frit'
p797
F0.00091621382535068876
sS'p\xc3\xa9'
p798
F3.1593580184506511e-05
sS'champagn'
p799
F0.00015796790092253255
sS'p\xc3\xa3'
p800
F0.0014848982686718058
sS'goiaba,'
p801
F6.3187160369013022e-05
sS'unidad'
p802
F0.00018956148110703904
sS'pequen'
p803
F0.0040439782636168334
sS'claras.'
p804
F3.1593580184506511e-05
sS'sald'
p805
F3.1593580184506511e-05
sS'salg'
p806
F9.4780740553519519e-05
sS'hidratada,'
p807
F3.1593580184506511e-05
sS'hidrat'
p808
F3.1593580184506511e-05
sS'pretas,'
p809
F0.00012637432073802604
sS'(em'
p810
F9.4780740553519519e-05
sS'sals'
p811
F0.0044231012258309109
sS'(200'
p812
F0.0002843422216605586
sS'parboliz'
p813
F3.1593580184506511e-05
sS'su\xc3\xadn'
p814
F0.00012637432073802604
sS'german'
p815
F3.1593580184506511e-05
sS'shoy'
p816
F0.00015796790092253255
sS'su\xc3\xadc'
p817
F9.4780740553519519e-05
sS'laranja;'
p818
F3.1593580184506511e-05
sS'fatias)'
p819
F3.1593580184506511e-05
sS'fatias.'
p820
F3.1593580184506511e-05
sS'fervente)'
p821
F3.1593580184506511e-05
sS'fervente,'
p822
F3.1593580184506511e-05
sS'ch\xc3\xa1'
p823
F0.0092253254138759001
sS'500ml'
p824
F3.1593580184506511e-05
sS'aind'
p825
F3.1593580184506511e-05
sS'fervente;'
p826
F6.3187160369013022e-05
sS'10cm)'
p827
F3.1593580184506511e-05
sS'amargo.'
p828
F3.1593580184506511e-05
sS'canjiquinh'
p829
F6.3187160369013022e-05
sS'peru)'
p830
F3.1593580184506511e-05
sS'220'
p831
F3.1593580184506511e-05
sS'colherinh'
p832
F6.3187160369013022e-05
sS'tamanh'
p833
F0.00018956148110703904
sS'parmezon'
p834
F3.1593580184506511e-05
sS'gorgonzol'
p835
F0.00018956148110703904
sS'gem'
p836
F0.0018956148110703904
sS'gel'
p837
F0.00041071654239858459
sS'conchiglion'
p838
F3.1593580184506511e-05
sS'\xc3\xb3leo;'
p839
F0.00034752938202957156
sS'salsich'
p840
F0.0002843422216605586
sS'\xc3\xb3leo,'
p841
F0.00018956148110703904
sS'\xc3\xb3leo.'
p842
F0.0002843422216605586
sS'(til\xc3\xa1pia,'
p843
F3.1593580184506511e-05
sS'com:'
p844
F0.00022115506129154555
sS'mo\xc3\xa7a)'
p845
F3.1593580184506511e-05
sS'colheres(sopa)'
p846
F0.00022115506129154555
sS'torta.'
p847
F3.1593580184506511e-05
sS'uva'
p848
F0.0002843422216605586
sS'acresc'
p849
F3.1593580184506511e-05
sS'cerej'
p850
F0.00025274864147605209
sS'iogurt'
p851
F0.00034752938202957156
sS'3'
F0.012984961455832176
sS'coxa)'
p852
F3.1593580184506511e-05
sS'substitu\xc3\xadd'
p853
F3.1593580184506511e-05
sS'(120g)'
p854
F3.1593580184506511e-05
sS'agost'
p855
F9.4780740553519519e-05
sS'canjic'
p856
F3.1593580184506511e-05
sS'25'
p857
F6.3187160369013022e-05
sS'fervura,'
p858
F3.1593580184506511e-05
sS'1.100'
p859
F3.1593580184506511e-05
sS'picant'
p860
F0.00037912296221407808
sS'picante,'
p861
F3.1593580184506511e-05
sS'picante.'
p862
F3.1593580184506511e-05
sS'tud'
p863
F6.3187160369013022e-05
sS'hondash'
p864
F3.1593580184506511e-05
sS'retir'
p865
F9.4780740553519519e-05
sS'mang'
p866
F3.1593580184506511e-05
sS'manj'
p867
F3.1593580184506511e-05
sS'polv'
p868
F9.4780740553519519e-05
sS'alho-por'
p869
F3.1593580184506511e-05
sS'ligeir'
p870
F3.1593580184506511e-05
sS'polp'
p871
F0.00050549728295210417
sS'pot'
p872
F0.00012637432073802604
sS'por'
p873
F9.4780740553519519e-05
sS'badej'
p874
F6.3187160369013022e-05
sS'6.'
p875
F3.1593580184506511e-05
sS'inglesa.'
p876
F3.1593580184506511e-05
sS'60'
p877
F9.4780740553519519e-05
sS'(patinho,'
p878
F3.1593580184506511e-05
sS'(picadas)'
p879
F3.1593580184506511e-05
sS'(patinho)'
p880
F3.1593580184506511e-05
sS'marc'
p881
F6.3187160369013022e-05
sS'leite;'
p882
F0.00047390370276759761
sS'mart'
p883
F3.1593580184506511e-05
sS'folhinh'
p884
F0.00012637432073802604
sS'maminh'
p885
F6.3187160369013022e-05
sS'leite.'
p886
F0.00018956148110703904
sS'leite,'
p887
F0.00022115506129154555
sS'marisc'
p888
F6.3187160369013022e-05
sS'leite)'
p889
F0.00012637432073802604
sS'mo\xc3\xadd'
p890
F0.0019272083912548971
sS'manteit'
p891
F3.1593580184506511e-05
sS'maionese,'
p892
F3.1593580184506511e-05
sS'boa)'
p893
F3.1593580184506511e-05
sS'integal'
p894
F3.1593580184506511e-05
sS'prato.'
p895
F9.4780740553519519e-05
sS'tigel'
p896
F3.1593580184506511e-05
sS'umedecer,'
p897
F3.1593580184506511e-05
sS'manteig'
p898
F0.0062239352963477821
sS'maionese:'
p899
F3.1593580184506511e-05
sS'maionese;'
p900
F0.00018956148110703904
sS'prato;'
p901
F3.1593580184506511e-05
sS'merluza)'
p902
F3.1593580184506511e-05
sS'pelado;'
p903
F3.1593580184506511e-05
sS'contra-fil'
p904
F6.3187160369013022e-05
sS'casc'
p905
F0.001674459749778845
sS'50g'
p906
F0.00050549728295210417
sS'saquinh'
p907
F3.1593580184506511e-05
sS'sardinha)'
p908
F3.1593580184506511e-05
sS'(crua)'
p909
F3.1593580184506511e-05
sS'pequeno,'
p910
F0.00015796790092253255
sS'polent'
p911
F9.4780740553519519e-05
sS'(fat'
p912
F3.1593580184506511e-05
sS'p\xc3\xa3o(15'
p913
F3.1593580184506511e-05
sS'sush'
p914
F3.1593580184506511e-05
sS'canol'
p915
F3.1593580184506511e-05
sS'(faz'
p916
F6.3187160369013022e-05
sS'suficiente)'
p917
F3.1593580184506511e-05
sS'ambient'
p918
F3.1593580184506511e-05
sS'morang'
p919
F0.0004423101225830911
sS'aguardent'
p920
F3.1593580184506511e-05
sS'bagr'
p921
F3.1593580184506511e-05
sS'par'
p922
F0.0004423101225830911
sS'pat'
p923
F6.3187160369013022e-05
sS'pau'
p924
F3.1593580184506511e-05
sS'azed'
p925
F3.1593580184506511e-05
sS'litr'
p926
F0.0024642992543915075
sS'farofa:'
p927
F3.1593580184506511e-05
sS'pai'
p928
F9.4780740553519519e-05
sS'obs.:'
p929
F3.1593580184506511e-05
sS'lim\xc3\xa3o;'
p930
F0.00025274864147605209
sS'(requeij\xc3\xa3o)'
p931
F3.1593580184506511e-05
sS'350'
p932
F0.00015796790092253255
sS'cr\xc3\xba,'
p933
F3.1593580184506511e-05
sS'lim\xc3\xa3o.'
p934
F3.1593580184506511e-05
sS'lim\xc3\xa3o,'
p935
F0.00012637432073802604
sS'pesso'
p936
F3.1593580184506511e-05
sS'1colh'
p937
F3.1593580184506511e-05
sS'duro,'
p938
F3.1593580184506511e-05
sS'sopa(b'
p939
F3.1593580184506511e-05
sS'moder'
p940
F3.1593580184506511e-05
sS'grosseir'
p941
F0.00012637432073802604
sS'(520g)'
p942
F3.1593580184506511e-05
sS'pasta,'
p943
F6.3187160369013022e-05
sS'1cm'
p944
F6.3187160369013022e-05
sS'maizen'
p945
F0.00022115506129154555
sS'(200ml)'
p946
F9.4780740553519519e-05
sS'massa(lazanha)'
p947
F3.1593580184506511e-05
sS'rest'
p948
F6.3187160369013022e-05
sS'palmito,'
p949
F3.1593580184506511e-05
sS'(o'
p950
F6.3187160369013022e-05
sS'f\xc3\xadg'
p951
F9.4780740553519519e-05
sS'(a'
p952
F0.00018956148110703904
sS'concentr'
p953
F9.4780740553519519e-05
sS'picadas.'
p954
F3.1593580184506511e-05
sS'fria.'
p955
F3.1593580184506511e-05
sS'chuchus'
p956
F3.1593580184506511e-05
sS'gruy\xc3\xa9re)'
p957
F3.1593580184506511e-05
sS'gosto)'
p958
F0.00022115506129154555
sS'(250g)'
p959
F3.1593580184506511e-05
sS'4'
F0.009383293314798433
sS'casca)'
p960
F9.4780740553519519e-05
sS'casca.'
p961
F3.1593580184506511e-05
sS'casca,'
p962
F0.00015796790092253255
sS'barbecue:'
p963
F3.1593580184506511e-05
sS'(8'
p964
F6.3187160369013022e-05
sS'(retir'
p965
F3.1593580184506511e-05
sS'(2'
p966
F3.1593580184506511e-05
sS'tipo)'
p967
F3.1593580184506511e-05
sS'(1'
p968
F9.4780740553519519e-05
sS'(6'
p969
F3.1593580184506511e-05
sS'(4'
p970
F6.3187160369013022e-05
sS'(5'
p971
F3.1593580184506511e-05
sS'(+'
p972
F6.3187160369013022e-05
sS'paneton'
p973
F3.1593580184506511e-05
sS'temperatur'
p974
F3.1593580184506511e-05
sS'mol'
p975
F0.00018956148110703904
sS'moc'
p976
F0.00082143308479716917
sS'recipient'
p977
F3.1593580184506511e-05
sS'mandioca,'
p978
F9.4780740553519519e-05
sS'mandioca.'
p979
F3.1593580184506511e-05
sS'batidas;'
p980
F3.1593580184506511e-05
sS'picados;'
p981
F0.00022115506129154555
sS'(100'
p982
F9.4780740553519519e-05
sS'chuchu,'
p983
F3.1593580184506511e-05
sS'churrasc'
p984
F6.3187160369013022e-05
sS'picados,'
p985
F0.00012637432073802604
sS'espinhas,'
p986
F3.1593580184506511e-05
sS'royal;'
p987
F3.1593580184506511e-05
sS'quente.'
p988
F3.1593580184506511e-05
sS'folhas)'
p989
F6.3187160369013022e-05
sS'ch\xc3\xa1,'
p990
F0.00015796790092253255
sS'ch\xc3\xa1)'
p991
F0.0002843422216605586
sS'cabr'
p992
F3.1593580184506511e-05
sS'pod'
p993
F6.3187160369013022e-05
sS'conchilion'
p994
F3.1593580184506511e-05
sS'gross'
p995
F0.00097940098571970167
sS'outr'
p996
F0.00015796790092253255
sS'cebolet'
p997
F3.1593580184506511e-05
sS'lentilh'
p998
F0.00012637432073802604
sS'mussarel'
p999
F0.0024011120940224946
sS'cozidos,'
p1000
F3.1593580184506511e-05
sS'mexilh\xc3\xb5es.'
p1001
F3.1593580184506511e-05
sS'x\xc3\xadc'
p1002
F0.026759762416277012
sS'cozidos;'
p1003
F3.1593580184506511e-05
sS'salsinh'
p1004
F0.0019588019714394033
sS'ap\xc3\xb3s'
p1005
F3.1593580184506511e-05
sS'instant\xc3\xa2n'
p1006
F6.3187160369013022e-05
sS'(m\xc3\xa9dia)'
p1007
F6.3187160369013022e-05
sS'feit'
p1008
F0.00012637432073802604
sS'desfi'
p1009
F0.00085302666498167574
sS'cervej'
p1010
F0.00025274864147605209
sS'margarina;'
p1011
F0.00015796790092253255
sS'quadradinh'
p1012
F0.0002843422216605586
sS'margarina,'
p1013
F3.1593580184506511e-05
sS'su\xc3\xadno,'
p1014
F3.1593580184506511e-05
sS'x\xc3\xadc.'
p1015
F3.1593580184506511e-05
sS'moela)'
p1016
F3.1593580184506511e-05
sS'quent'
p1017
F0.00050549728295210417
sS'mole,'
p1018
F3.1593580184506511e-05
sS'4colh'
p1019
F3.1593580184506511e-05
sS'a\xc3\xa7\xc3\xbacar;'
p1020
F3.1593580184506511e-05
sS'log'
p1021
F3.1593580184506511e-05
sS'(12'
p1022
F6.3187160369013022e-05
sS'ameix'
p1023
F0.00041071654239858459
sS'a\xc3\xa7\xc3\xbacar,'
p1024
F9.4780740553519519e-05
sS'a\xc3\xa7\xc3\xbacar)'
p1025
F3.1593580184506511e-05
sS'cozidas.'
p1026
F3.1593580184506511e-05
sS'(240'
p1027
F9.4780740553519519e-05
sS'maduros,'
p1028
F0.0002843422216605586
sS'maduros)'
p1029
F3.1593580184506511e-05
sS'untar'
p1030
F0.00047390370276759761
sS'50gr.'
p1031
F3.1593580184506511e-05
sS'quatr'
p1032
F6.3187160369013022e-05
sS'cortado;'
p1033
F3.1593580184506511e-05
sS'sobrecoxa)'
p1034
F3.1593580184506511e-05
sS'colherinha,'
p1035
F3.1593580184506511e-05
sS'espremedor;'
p1036
F3.1593580184506511e-05
sS'\xc3\xa1gu'
p1037
F0.0063819031972703151
sS'500'
p1038
F0.00199039555162391
sS'mm)'
p1039
F3.1593580184506511e-05
sS'boa'
p1040
F0.00012637432073802604
sS'embeb'
p1041
F3.1593580184506511e-05
sS'600'
p1042
F0.00031593580184506511
sS'dente"'
p1043
F3.1593580184506511e-05
sS'prefer\xc3\xaancia,'
p1044
F3.1593580184506511e-05
sS'300g'
p1045
F0.00066346518387463667
sS'catchup'
p1046
F0.00037912296221407808
sS'umas'
p1047
F3.1593580184506511e-05
sS'm\xc3\xa9dios;'
p1048
F3.1593580184506511e-05
sS'film'
p1049
F3.1593580184506511e-05
sS'madeir'
p1050
F0.00012637432073802604
sS'biol\xc3\xb3g'
p1051
F0.00025274864147605209
sS'5'
F0.0031909515986351575
sS'gordur'
p1052
F0.00047390370276759761
sS'(salsinh'
p1053
F3.1593580184506511e-05
sS'amolec'
p1054
F6.3187160369013022e-05
sS'granul'
p1055
F9.4780740553519519e-05
sS'condens'
p1056
F0.0017692404903323644
sS'floretes)'
p1057
F3.1593580184506511e-05
sS'60g'
p1058
F3.1593580184506511e-05
sS'120g'
p1059
F3.1593580184506511e-05
sS'maduros),'
p1060
F3.1593580184506511e-05
sS'1cebol'
p1061
F3.1593580184506511e-05
sS'(cinza)'
p1062
F3.1593580184506511e-05
sS'11/2'
p1063
F6.3187160369013022e-05
sS'sardinh'
p1064
F0.0002843422216605586
sS'(tip'
p1065
F0.00018956148110703904
sS'mass'
p1066
F0.00075824592442815615
sS'damasco,'
p1067
F3.1593580184506511e-05
sS'coentro)'
p1068
F3.1593580184506511e-05
sS'a\xc3\xa7ucar,'
p1069
F3.1593580184506511e-05
sS'coentro,'
p1070
F3.1593580184506511e-05
sS'coentro.'
p1071
F3.1593580184506511e-05
sS'sicilian'
p1072
F9.4780740553519519e-05
sS'fleichmann'
p1073
F3.1593580184506511e-05
sS'castanha-do-p'
p1074
F3.1593580184506511e-05
sS'leito'
p1075
F0.00012637432073802604
sS'espinafre)'
p1076
F3.1593580184506511e-05
sS'pts'
p1077
F3.1593580184506511e-05
sS'camadas.'
p1078
F3.1593580184506511e-05
sS'(pequenas)'
p1079
F6.3187160369013022e-05
sS'(peixe)'
p1080
F3.1593580184506511e-05
sS'goste,'
p1081
F3.1593580184506511e-05
sS'rodelinh'
p1082
F3.1593580184506511e-05
sS'(aquel'
p1083
F3.1593580184506511e-05
sS'congel'
p1084
F6.3187160369013022e-05
sS'faz'
p1085
F0.00015796790092253255
sS'carro\xc3\xa7os,'
p1086
F3.1593580184506511e-05
sS'fub\xc3\xa1;'
p1087
F3.1593580184506511e-05
sS'fals'
p1088
F3.1593580184506511e-05
sS'cebolinha,'
p1089
F6.3187160369013022e-05
sS'cebolinha)'
p1090
F3.1593580184506511e-05
sS'azeite-de-dend'
p1091
F6.3187160369013022e-05
sS'fub\xc3\xa1,'
p1092
F3.1593580184506511e-05
sS'verd'
p1093
F0.0048338177682294954
sS'fac'
p1094
F3.1593580184506511e-05
sS'cebolinha;'
p1095
F3.1593580184506511e-05
sS'alcatra;'
p1096
F3.1593580184506511e-05
sS'catupiry'
p1097
F0.00022115506129154555
sS'sang'
p1098
F9.4780740553519519e-05
sS'alcatra)'
p1099
F3.1593580184506511e-05
sS'namor'
p1100
F3.1593580184506511e-05
sS'tomilh'
p1101
F0.00031593580184506511
sS'salm\xc3\xa3o)'
p1102
F3.1593580184506511e-05
sS'picadinh'
p1103
F0.0030013901175281184
sS'requeij\xc3\xa3'
p1104
F0.0012953367875647669
sS'celola"'
p1105
F3.1593580184506511e-05
sS'debulh'
p1106
F3.1593580184506511e-05
sS'hortel\xc3\xa3.'
p1107
F3.1593580184506511e-05
sS'past'
p1108
F9.4780740553519519e-05
sS'espaguet'
p1109
F0.00031593580184506511
sS'500g'
p1110
F0.00050549728295210417
sS'tradicional'
p1111
F0.00012637432073802604
sS'pass'
p1112
F0.00097940098571970167
sS'cascas.'
p1113
F3.1593580184506511e-05
sS'gengibr'
p1114
F0.00047390370276759761
sS'furadinho,'
p1115
F3.1593580184506511e-05
sS'ra\xc3\xadz'
p1116
F6.3187160369013022e-05
sS'suc'
p1117
F0.0026854543156830534
sS'sum'
p1118
F9.4780740553519519e-05
sS'espig'
p1119
F0.00012637432073802604
sS'leit'
p1120
F0.013964362441551876
sS'uvas'
p1121
F0.00012637432073802604
sS'ceboulette,'
p1122
F3.1593580184506511e-05
sS'cozido;'
p1123
F6.3187160369013022e-05
sS'palit'
p1124
F0.00015796790092253255
sS'cozido)'
p1125
F3.1593580184506511e-05
sS'p\xc3\xb4r'
p1126
F3.1593580184506511e-05
sS'cozido,'
p1127
F6.3187160369013022e-05
sS'cozido.'
p1128
F6.3187160369013022e-05
sS'hast'
p1129
F3.1593580184506511e-05
sS'lomb'
p1130
F0.00053709086313661063
sS'(sem'
p1131
F0.0004423101225830911
sS'desoss'
p1132
F9.4780740553519519e-05
sS'(8,00'
p1133
F3.1593580184506511e-05
sS'arroz.'
p1134
F3.1593580184506511e-05
sS'desidrat'
p1135
F3.1593580184506511e-05
sS'contr'
p1136
F6.3187160369013022e-05
sS'cheese)'
p1137
F3.1593580184506511e-05
sS'pica'
p1138
F3.1593580184506511e-05
sS'rabo,'
p1139
F3.1593580184506511e-05
sS'vez'
p1140
F0.00022115506129154555
sS'unidades)'
p1141
F6.3187160369013022e-05
sS'700g'
p1142
F6.3187160369013022e-05
sS'vir'
p1143
F3.1593580184506511e-05
sS'pronta)'
p1144
F3.1593580184506511e-05
sS'de:'
p1145
F3.1593580184506511e-05
sS'bolach'
p1146
F9.4780740553519519e-05
sS'(ch\xc3\xa1)'
p1147
F0.013711613800075824
sS'acord'
p1148
F3.1593580184506511e-05
sS'galinha(men'
p1149
F3.1593580184506511e-05
sS'morn'
p1150
F0.00063187160369013022
sS'6'
F0.00334891949955769
sS'vontade:'
p1151
F3.1593580184506511e-05
sS'emmental'
p1152
F3.1593580184506511e-05
sS'(tipo:'
p1153
F3.1593580184506511e-05
sS'(agit'
p1154
F3.1593580184506511e-05
sS'espessur'
p1155
F3.1593580184506511e-05
sS'cenoura,'
p1156
F3.1593580184506511e-05
sS'190g'
p1157
F3.1593580184506511e-05
sS'desgrud'
p1158
F3.1593580184506511e-05
sS'pectin'
p1159
F3.1593580184506511e-05
sS'200gr'
p1160
F3.1593580184506511e-05
sS'sobremesa(cheia)'
p1161
F3.1593580184506511e-05
sS'amarelos,'
p1162
F3.1593580184506511e-05
sS'2colh'
p1163
F3.1593580184506511e-05
sS'\xc3\xa1gua,'
p1164
F3.1593580184506511e-05
sS'\xc3\xa1gua.'
p1165
F3.1593580184506511e-05
sS'\xc3\xa1gua)'
p1166
F0.00012637432073802604
sS'gruy\xc3\xa9r'
p1167
F3.1593580184506511e-05
sS'fritar.'
p1168
F0.00015796790092253255
sS'fritar)'
p1169
F3.1593580184506511e-05
sS'caixinh'
p1170
F0.0002843422216605586
sS'massa:'
p1171
F6.3187160369013022e-05
sS'salpic'
p1172
F9.4780740553519519e-05
sS'portugues'
p1173
F3.1593580184506511e-05
sS'(clar'
p1174
F3.1593580184506511e-05
sS'\xc3\xa1gua;'
p1175
F3.1593580184506511e-05
sS'berbig\xc3\xa3'
p1176
F3.1593580184506511e-05
sS'massa)'
p1177
F3.1593580184506511e-05
sS'fritar;'
p1178
F6.3187160369013022e-05
sS'(coz'
p1179
F3.1593580184506511e-05
sS'(americano)'
p1180
F3.1593580184506511e-05
sS'(cop'
p1181
F3.1593580184506511e-05
sS'(com'
p1182
F3.1593580184506511e-05
sS'ementhal'
p1183
F3.1593580184506511e-05
sS'prote\xc3\xadn'
p1184
F3.1593580184506511e-05
sS'inteiros,'
p1185
F6.3187160369013022e-05
sS'csp'
p1186
F9.4780740553519519e-05
sS'frigideir'
p1187
F3.1593580184506511e-05
sS'(pequena)'
p1188
F3.1593580184506511e-05
sS'toucinho,'
p1189
F3.1593580184506511e-05
sS'seman'
p1190
F3.1593580184506511e-05
sS'cominh'
p1191
F0.00034752938202957156
sS'horizontal'
p1192
F3.1593580184506511e-05
sS'escorridas;'
p1193
F3.1593580184506511e-05
sS'chuvisco;'
p1194
F3.1593580184506511e-05
sS'a'
F0.00015796790092253255
sS'arde'
p1195
F3.1593580184506511e-05
sS'incolor,'
p1196
F3.1593580184506511e-05
sS'caul'
p1197
F6.3187160369013022e-05
sS'm\xc3\xa1ximo)'
p1198
F3.1593580184506511e-05
sS'portugu\xc3\xaas'
p1199
F6.3187160369013022e-05
sS'coad'
p1200
F0.00015796790092253255
sS'n\xc3\xb3z-mosc'
p1201
F3.1593580184506511e-05
sS'lasanh'
p1202
F0.00018956148110703904
sS'japon\xc3\xaas'
p1203
F6.3187160369013022e-05
sS'medalh\xc3\xb5'
p1204
F9.4780740553519519e-05
sS'papel'
p1205
F0.00053709086313661063
sS'm\xc3\xa9dio,'
p1206
F6.3187160369013022e-05
sS'baguet'
p1207
F3.1593580184506511e-05
sS'press\xc3\xa3'
p1208
F6.3187160369013022e-05
sS'nosmosc'
p1209
F3.1593580184506511e-05
sS'gelo.'
p1210
F3.1593580184506511e-05
sS'rosbife)'
p1211
F3.1593580184506511e-05
sS'(reserv'
p1212
F0.00018956148110703904
sS'(24gr.)'
p1213
F3.1593580184506511e-05
sS'20'
p1214
F0.00034752938202957156
sS'prat'
p1215
F0.00088462024516618219
sS'(cas'
p1216
F3.1593580184506511e-05
sS'\xc2\xbc);'
p1217
F3.1593580184506511e-05
sS'c/alh'
p1218
F3.1593580184506511e-05
sS'(cubos),'
p1219
F3.1593580184506511e-05
sS'rechear,'
p1220
F3.1593580184506511e-05
sS'penn'
p1221
F3.1593580184506511e-05
sS'2.'
p1222
F6.3187160369013022e-05
sS'pl\xc3\xa1stic'
p1223
F3.1593580184506511e-05
sS'costelet'
p1224
F0.00012637432073802604
sS'ceg'
p1225
F3.1593580184506511e-05
sS'sopa(cheias)'
p1226
F3.1593580184506511e-05
sS'ensop'
p1227
F6.3187160369013022e-05
sS'fritura.'
p1228
F3.1593580184506511e-05
sS'fritura)'
p1229
F3.1593580184506511e-05
sS'fios'
p1230
F3.1593580184506511e-05
sS'(s\xc3\xb3'
p1231
F0.00018956148110703904
sS'cer'
p1232
F6.3187160369013022e-05
sS'c\xc3\xb4c'
p1233
F0.00012637432073802604
sS'(bodinha)'
p1234
F3.1593580184506511e-05
sS'gergelim'
p1235
F0.00015796790092253255
sS'm\xc3\xa3os)'
p1236
F3.1593580184506511e-05
sS'baroa)'
p1237
F3.1593580184506511e-05
sS'(quantidad'
p1238
F3.1593580184506511e-05
sS'copinh'
p1239
F3.1593580184506511e-05
sS'2g'
p1240
F3.1593580184506511e-05
sS'400ml'
p1241
F3.1593580184506511e-05
sS'amarel'
p1242
F0.00050549728295210417
sS'tomates,'
p1243
F9.4780740553519519e-05
sS'prefer\xc3\xaancia)'
p1244
F6.3187160369013022e-05
sS'ciabat'
p1245
F3.1593580184506511e-05
sS'prefer\xc3\xaancia.'
p1246
F3.1593580184506511e-05
sS'broc\xc3\xb3l'
p1247
F3.1593580184506511e-05
sS'batatinh'
p1248
F3.1593580184506511e-05
sS'cachac'
p1249
F0.00025274864147605209
sS'orient'
p1250
F3.1593580184506511e-05
sS'empad\xc3\xa3'
p1251
F3.1593580184506511e-05
sS'colherzinh'
p1252
F6.3187160369013022e-05
sS'7'
F0.00034752938202957156
sS'carneir'
p1253
F3.1593580184506511e-05
sS'an\xc3\xa9'
p1254
F9.4780740553519519e-05
sS'bast'
p1255
F0.002306331353468975
sS'mocot'
p1256
F3.1593580184506511e-05
sS'couve-flor'
p1257
F0.00031593580184506511
sS'grossa.'
p1258
F3.1593580184506511e-05
sS'asa'
p1259
F0.00012637432073802604
sS'mococ'
p1260
F3.1593580184506511e-05
sS'pur'
p1261
F0.0004423101225830911
sS'fiap'
p1262
F3.1593580184506511e-05
sS'galinha);'
p1263
F3.1593580184506511e-05
sS'sorvete;'
p1264
F3.1593580184506511e-05
sS'american'
p1265
F0.00022115506129154555
sS'(tr\xc3\xaas)'
p1266
F3.1593580184506511e-05
sS'pedac'
p1267
F0.0013901175281182863
sS'mortadel'
p1268
F0.00015796790092253255
sS'grama).'
p1269
F3.1593580184506511e-05
sS'pimenta-do-rein'
p1270
F0.0023695185138379879
sS'vitaminado;'
p1271
F3.1593580184506511e-05
sS'\xc3\xb3regan'
p1272
F3.1593580184506511e-05
sS'quadr'
p1273
F0.00025274864147605209
sS'gruy\xc3\xaar'
p1274
F3.1593580184506511e-05
sS'verdur'
p1275
F3.1593580184506511e-05
sS'rodelas,'
p1276
F6.3187160369013022e-05
sS'rodelas.'
p1277
F6.3187160369013022e-05
sS'pescoc'
p1278
F3.1593580184506511e-05
sS'castanh'
p1279
F0.00018956148110703904
sS'(folh'
p1280
F6.3187160369013022e-05
sS'saint'
p1281
F3.1593580184506511e-05
sS'ervilh'
p1282
F0.00097940098571970167
sS'rodelas;'
p1283
F3.1593580184506511e-05
sS'parm'
p1284
F3.1593580184506511e-05
sS'c\xc3\xbarcum'
p1285
F3.1593580184506511e-05
sS'part'
p1286
F0.00025274864147605209
sS'prend'
p1287
F3.1593580184506511e-05
sS'alumini'
p1288
F0.0004423101225830911
sS'defumado;'
p1289
F3.1593580184506511e-05
sS'b'
F3.1593580184506511e-05
sS'1/2colh'
p1290
F3.1593580184506511e-05
sS'perfum'
p1291
F9.4780740553519519e-05
sS'remov'
p1292
F6.3187160369013022e-05
sS'brancas,'
p1293
F3.1593580184506511e-05
sS'torradas.'
p1294
F6.3187160369013022e-05
sS'temperados,'
p1295
F6.3187160369013022e-05
sS'trigo(at'
p1296
F3.1593580184506511e-05
sS'louro,'
p1297
F6.3187160369013022e-05
sS'louro.'
p1298
F6.3187160369013022e-05
sS'cox\xc3\xa3'
p1299
F0.00025274864147605209
sS'(30'
p1300
F3.1593580184506511e-05
sS'champignon'
p1301
F0.00041071654239858459
sS'cheiros-v'
p1302
F3.1593580184506511e-05
sS'100grs'
p1303
F3.1593580184506511e-05
sS'picanha.'
p1304
F3.1593580184506511e-05
sS'galh'
p1305
F3.1593580184506511e-05
sS'parmes\xc3\xa3o.'
p1306
F6.3187160369013022e-05
sS'parmes\xc3\xa3o,'
p1307
F3.1593580184506511e-05
sS'cr\xc3\xb3tons'
p1308
F3.1593580184506511e-05
sS'fatiada,'
p1309
F3.1593580184506511e-05
sS'coxinh'
p1310
F9.4780740553519519e-05
sS'lit'
p1311
F3.1593580184506511e-05
sS'glutamat'
p1312
F3.1593580184506511e-05
sS'parmes\xc3\xa3o;'
p1313
F3.1593580184506511e-05
sS'lis'
p1314
F3.1593580184506511e-05
sS'cozinh'
p1315
F0.00025274864147605209
sS'(m\xc3\xa9dias)'
p1316
F3.1593580184506511e-05
sS'(500gr.)'
p1317
F3.1593580184506511e-05
sS'fatiado,'
p1318
F3.1593580184506511e-05
sS'mosc'
p1319
F0.00031593580184506511
sS'pescada;'
p1320
F6.3187160369013022e-05
sS'c\xc3\xa1lic'
p1321
F0.00025274864147605209
sS'pernil),'
p1322
F3.1593580184506511e-05
sS'75'
p1323
F0.00012637432073802604
sS'70'
p1324
F3.1593580184506511e-05
sS'(faiado),'
p1325
F3.1593580184506511e-05
sS'gergelim.'
p1326
F3.1593580184506511e-05
sS'(coxa,'
p1327
F3.1593580184506511e-05
sS'kg'
p1328
F0.0081827372677871855
sS'bolinh'
p1329
F3.1593580184506511e-05
sS'(pic'
p1330
F3.1593580184506511e-05
sS'pr\xc3\xa9'
p1331
F0.00015796790092253255
sS'suficient'
p1332
F0.00018956148110703904
sS'recheadas,'
p1333
F3.1593580184506511e-05
sS'120gr.'
p1334
F3.1593580184506511e-05
sS'caixas,'
p1335
F3.1593580184506511e-05
sS'fininh'
p1336
F3.1593580184506511e-05
sS'largur'
p1337
F3.1593580184506511e-05
sS'julienn'
p1338
F6.3187160369013022e-05
sS'erva'
p1339
F6.3187160369013022e-05
sS'berienjel'
p1340
F3.1593580184506511e-05
sS'sert\xc3\xa3'
p1341
F3.1593580184506511e-05
sS'8'
F0.00097940098571970167
sS'aliche,'
p1342
F3.1593580184506511e-05
sS'etc.,'
p1343
F3.1593580184506511e-05
sS'etc.)'
p1344
F9.4780740553519519e-05
sS'pois'
p1345
F3.1593580184506511e-05
sS'pimenta(s)'
p1346
F3.1593580184506511e-05
sS'figo,'
p1347
F9.4780740553519519e-05
sS'gratin'
p1348
F3.1593580184506511e-05
sS'limpas,'
p1349
F3.1593580184506511e-05
sS'cru'
p1350
F0.00047390370276759761
sS'vodka;'
p1351
F3.1593580184506511e-05
sS'dijon'
p1352
F3.1593580184506511e-05
sS'cebolinh'
p1353
F0.0025590799949450271
sS'caramel'
p1354
F0.00018956148110703904
sS'cre'
p1355
F6.3187160369013022e-05
sS'x'
F3.1593580184506511e-05
sS'vodka.'
p1356
F3.1593580184506511e-05
sS'vinh'
p1357
F0.0025906735751295338
sS'sol,'
p1358
F6.3187160369013022e-05
sS'barr'
p1359
F3.1593580184506511e-05
sS'ser'
p1360
F0.00022115506129154555
sS'calabr'
p1361
F3.1593580184506511e-05
sS'decorar.'
p1362
F3.1593580184506511e-05
sS'roc'
p1363
F3.1593580184506511e-05
sS'sec'
p1364
F0.0022115506129154554
sS'cheiro-verd'
p1365
F0.00034752938202957156
sS'decorar:'
p1366
F3.1593580184506511e-05
sS'reserv'
p1367
F6.3187160369013022e-05
sS'baro'
p1368
F0.00012637432073802604
sS'#'
F3.1593580184506511e-05
sS'inteir'
p1369
F0.00085302666498167574
sS'(2250'
p1370
F3.1593580184506511e-05
sS'bistec'
p1371
F9.4780740553519519e-05
sS'deix'
p1372
F6.3187160369013022e-05
sS'm\xc3\xa1quin'
p1373
F6.3187160369013022e-05
sS'1mac'
p1374
F6.3187160369013022e-05
sS'salsa)'
p1375
F3.1593580184506511e-05
sS'salsa.'
p1376
F3.1593580184506511e-05
sS'salsa,'
p1377
F0.00022115506129154555
sS'solh'
p1378
F3.1593580184506511e-05
sS'grossinho,'
p1379
F3.1593580184506511e-05
sS'maria-mol'
p1380
F3.1593580184506511e-05
sS'estrel'
p1381
F3.1593580184506511e-05
sS'solt'
p1382
F6.3187160369013022e-05
sS'(suc'
p1383
F3.1593580184506511e-05
sS'fumeir'
p1384
F3.1593580184506511e-05
sS'dessalg'
p1385
F0.00015796790092253255
sS'lula,'
p1386
F3.1593580184506511e-05
sS'claybom'
p1387
F0.00012637432073802604
sS'lagosta)'
p1388
F3.1593580184506511e-05
sS'enrol'
p1389
F6.3187160369013022e-05
sS'sobrecox'
p1390
F0.00012637432073802604
sS'cremosa)'
p1391
F3.1593580184506511e-05
sS'amass'
p1392
F0.0021799570327309492
sS'crocant'
p1393
F3.1593580184506511e-05
sS'03'
p1394
F0.00072665234424364969
sS'aferventado,'
p1395
F3.1593580184506511e-05
sS'gl\xc3\xbaten'
p1396
F3.1593580184506511e-05
sS'provol'
p1397
F3.1593580184506511e-05
sS'(magg'
p1398
F3.1593580184506511e-05
sS').'
p1399
F6.3187160369013022e-05
sS'rosc'
p1400
F0.0011057753064577277
sS'lim\xc3\xb5es.'
p1401
F6.3187160369013022e-05
sS'ml)'
p1402
F0.00015796790092253255
sS'ml.'
p1403
F0.00060027802350562365
sS's\xc3\xadria,'
p1404
F3.1593580184506511e-05
sS'catupir'
p1405
F3.1593580184506511e-05
sS'damm'
p1406
F0.00012637432073802604
sS'pedacinh'
p1407
F9.4780740553519519e-05
sS'pimenta.'
p1408
F6.3187160369013022e-05
sS'muzarel'
p1409
F3.1593580184506511e-05
sS'(150'
p1410
F6.3187160369013022e-05
sS'firm'
p1411
F3.1593580184506511e-05
sS'asinh'
p1412
F6.3187160369013022e-05
sS'fraldinh'
p1413
F3.1593580184506511e-05
sS'sopa(rasas)'
p1414
F3.1593580184506511e-05
sS'a\xc3\xa7\xc3\xbac'
p1415
F0.0042335397447238717
sS'fund'
p1416
F0.00015796790092253255
sS'colorau.'
p1417
F3.1593580184506511e-05
sS'fur'
p1418
F3.1593580184506511e-05
sS'monoss\xc3\xb3d'
p1419
F3.1593580184506511e-05
sS'(peda\xc3\xa7os)'
p1420
F3.1593580184506511e-05
sS'abert'
p1421
F3.1593580184506511e-05
sS'fub'
p1422
F0.0004423101225830911
sS'sobr'
p1423
F0.00069505876405914313
sS'sandu\xc3\xadch'
p1424
F3.1593580184506511e-05
sS'p/'
p1425
F0.00022115506129154555
sS'caule)'
p1426
F3.1593580184506511e-05
sS'toucinh'
p1427
F0.00050549728295210417
sS'secou)'
p1428
F3.1593580184506511e-05
sS'padeir'
p1429
F3.1593580184506511e-05
sS'folha.'
p1430
F3.1593580184506511e-05
sS'alum\xc3\xadni'
p1431
F6.3187160369013022e-05
sS'decor'
p1432
F0.00047390370276759761
sS'pontinh'
p1433
F3.1593580184506511e-05
sS'(15g)'
p1434
F3.1593580184506511e-05
sS'ac\xc3\xa9m)'
p1435
F3.1593580184506511e-05
sS'artesanalmente)'
p1436
F3.1593580184506511e-05
sS'grand'
p1437
F0.0038544167825097942
sS'9'
F0.00012637432073802604
sS'3.'
p1438
F6.3187160369013022e-05
sS'ralada;'
p1439
F9.4780740553519519e-05
sS'2\xc2\xbd'
p1440
F3.1593580184506511e-05
sS'azedo.'
p1441
F3.1593580184506511e-05
sS'a\xc3\xad'
p1442
F3.1593580184506511e-05
sS'p\xc3\xa3ezinh'
p1443
F6.3187160369013022e-05
sS'ralada)'
p1444
F3.1593580184506511e-05
sS'p\xc3\xa1prica.'
p1445
F3.1593580184506511e-05
sS'(40'
p1446
F3.1593580184506511e-05
sS'picada,'
p1447
F0.00015796790092253255
sS'gr.de'
p1448
F3.1593580184506511e-05
sS'bacon,'
p1449
F9.4780740553519519e-05
sS'liquidific'
p1450
F0.00025274864147605209
sS'(pepino)'
p1451
F3.1593580184506511e-05
sS'couv'
p1452
F0.0004423101225830911
sS'forma;'
p1453
F3.1593580184506511e-05
sS'opicional\xe2\x80\x9d'
p1454
F3.1593580184506511e-05
sS'salsinha,'
p1455
F9.4780740553519519e-05
sS'(75gr.)'
p1456
F3.1593580184506511e-05
sS'preferent'
p1457
F0.0004423101225830911
sS'maria)'
p1458
F3.1593580184506511e-05
sS'cur'
p1459
F3.1593580184506511e-05
sS'tablet'
p1460
F0.0014848982686718058
sS'(m\xc3\xa9dio)'
p1461
F3.1593580184506511e-05
sS'cub'
p1462
F0.0039491975230633138
sS'lavadas,'
p1463
F3.1593580184506511e-05
sS'limp'
p1464
F0.00097940098571970167
sS'tirinh'
p1465
F0.00031593580184506511
sS'tomat'
p1466
F0.0096676355364589909
sS'format'
p1467
F3.1593580184506511e-05
sS'cr\xc3\xba'
p1468
F3.1593580184506511e-05
sS'sug'
p1469
F3.1593580184506511e-05
sS'bic'
p1470
F3.1593580184506511e-05
sS'sherry'
p1471
F3.1593580184506511e-05
sS'amarg'
p1472
F0.00031593580184506511
sS'parafuso)'
p1473
F3.1593580184506511e-05
sS'gr\xc3\xa3'
p1474
F0.00025274864147605209
sS'(tozan)'
p1475
F3.1593580184506511e-05
sS'ralado;'
p1476
F0.00031593580184506511
sS'(200g)'
p1477
F6.3187160369013022e-05
sS'ralado,'
p1478
F6.3187160369013022e-05
sS'ralado.'
p1479
F0.00022115506129154555
sS'ralado)'
p1480
F6.3187160369013022e-05
sS'endro'
p1481
F6.3187160369013022e-05
sS'seca)'
p1482
F3.1593580184506511e-05
sS'mo\xc3\xaddo;'
p1483
F3.1593580184506511e-05
sS'f\xc3\xaam'
p1484
F3.1593580184506511e-05
sS'pimenta-do-reino,'
p1485
F0.00012637432073802604
sS'colher,'
p1486
F0.00069505876405914313
sS'jamaic'
p1487
F3.1593580184506511e-05
sS'u\xc3\xadsqu'
p1488
F3.1593580184506511e-05
sS'fatiat'
p1489
F3.1593580184506511e-05
sS'mo\xc3\xaddo.'
p1490
F3.1593580184506511e-05
sS'bastant'
p1491
F6.3187160369013022e-05
sS'm\xc3\xa9dia;'
p1492
F3.1593580184506511e-05
sS'pequena,'
p1493
F9.4780740553519519e-05
sS'esparg'
p1494
F3.1593580184506511e-05
sS'30g'
p1495
F6.3187160369013022e-05
sS'amac'
p1496
F3.1593580184506511e-05
sS'lamin'
p1497
F9.4780740553519519e-05
sS'pet'
p1498
F3.1593580184506511e-05
sS'desfiada,'
p1499
F3.1593580184506511e-05
sS'raspas)'
p1500
F3.1593580184506511e-05
sS'pel'
p1501
F0.001864021230885884
sS'larg'
p1502
F0.00012637432073802604
sS'chantilly'
p1503
F6.3187160369013022e-05
sS'pec'
p1504
F9.4780740553519519e-05
sS'lim\xc3\xb5'
p1505
F0.00031593580184506511
sS'300'
p1506
F0.001548085429040819
sS'opcional)'
p1507
F3.1593580184506511e-05
sS'crav'
p1508
F0.00025274864147605209
sS'acab'
p1509
F3.1593580184506511e-05
sS'lim\xc3\xa3'
p1510
F0.0026538607354985467
sS'(temperos)'
p1511
F3.1593580184506511e-05
sS'medir.'
p1512
F3.1593580184506511e-05
sS'cuminho,coloral'
p1513
F3.1593580184506511e-05
sS'2/3'
p1514
F6.3187160369013022e-05
sS'uvas-pass'
p1515
F6.3187160369013022e-05
sS'ovo;'
p1516
F0.00012637432073802604
sS'clar'
p1517
F0.0011057753064577277
sS'redondo;'
p1518
F3.1593580184506511e-05
sS'sal,piment'
p1519
F3.1593580184506511e-05
sS'necess\xc3\xa1r'
p1520
F3.1593580184506511e-05
sS'cenouras;'
p1521
F3.1593580184506511e-05
sS'soltando.'
p1522
F3.1593580184506511e-05
sS'(drumetes)'
p1523
F3.1593580184506511e-05
sS'integral'
p1524
F0.00034752938202957156
sS'm\xc3\xa9di'
p1525
F0.0010425881460887148
sS'sorvet'
p1526
F0.00015796790092253255
sS'vagem;'
p1527
F3.1593580184506511e-05
sS'alcachofr'
p1528
F6.3187160369013022e-05
sS'(700'
p1529
F3.1593580184506511e-05
sS'gra\xc3\xbad'
p1530
F6.3187160369013022e-05
sS'rabanet'
p1531
F3.1593580184506511e-05
sS'mo\xc3\xadda;'
p1532
F0.00012637432073802604
sS'mo\xc3\xadda,'
p1533
F6.3187160369013022e-05
sS'mo\xc3\xadda.'
p1534
F3.1593580184506511e-05
sS'aqu'
p1535
F3.1593580184506511e-05
sS'peru'
p1536
F0.00018956148110703904
sS'filet'
p1537
F9.4780740553519519e-05
sS'(do'
p1538
F3.1593580184506511e-05
sS'(n\xc3\xa3'
p1539
F6.3187160369013022e-05
sS'mostard'
p1540
F0.0013901175281182863
sS'aprox.'
p1541
F3.1593580184506511e-05
sS'cim'
p1542
F3.1593580184506511e-05
sS'um'
p1543
F9.4780740553519519e-05
sS'abacax'
p1544
F0.0004423101225830911
sS'flor'
p1545
F0.00018956148110703904
sS'abacat'
p1546
F3.1593580184506511e-05
sS'caseir'
p1547
F3.1593580184506511e-05
sS'surubim'
p1548
F6.3187160369013022e-05
sS'dill'
p1549
F3.1593580184506511e-05
sS'buqu\xc3\xaas'
p1550
F3.1593580184506511e-05
sS'queijo-de-min'
p1551
F6.3187160369013022e-05
sS's/sor'
p1552
F3.1593580184506511e-05
sS'nab'
p1553
F0.00018956148110703904
sS'fradinh'
p1554
F3.1593580184506511e-05
sS'200g'
p1555
F0.0011057753064577277
sS'verde,'
p1556
F0.0002843422216605586
sS'(amass'
p1557
F3.1593580184506511e-05
sS'cheese"'
p1558
F3.1593580184506511e-05
sS'povilh'
p1559
F3.1593580184506511e-05
sS'espremida;'
p1560
F3.1593580184506511e-05
sS'nat'
p1561
F0.00022115506129154555
sS'ferment'
p1562
F0.00199039555162391
sS'propor\xc3\xa7\xc3\xa3'
p1563
F3.1593580184506511e-05
sS'verde;'
p1564
F6.3187160369013022e-05
sS'macarr\xc3\xa3'
p1565
F0.00078983950461266272
sS'piment\xc3\xb5'
p1566
F0.00060027802350562365
sS'bisnag'
p1567
F3.1593580184506511e-05
sS'papa'
p1568
F3.1593580184506511e-05
sS'frances'
p1569
F3.1593580184506511e-05
sS'knor)'
p1570
F3.1593580184506511e-05
sS'azeit'
p1571
F0.0067294325792998863
sS'texturiz'
p1572
F3.1593580184506511e-05
sS'piment\xc3\xa3'
p1573
F0.0033805130797421963
sS'(500g)'
p1574
F9.4780740553519519e-05
sS'quilo,'
p1575
F3.1593580184506511e-05
sS'fresc'
p1576
F0.0022115506129154554
sS'(pr\xc3\xb3pri'
p1577
F3.1593580184506511e-05
sS'gr.'
p1578
F0.0013269303677492733
sS'agu'
p1579
F0.00025274864147605209
sS'(acompanhamento)'
p1580
F3.1593580184506511e-05
sS'gr'
p1581
F0.0011689624668267408
sS'usou'
p1582
F3.1593580184506511e-05
sS'nenhum'
p1583
F3.1593580184506511e-05
sS'meio-amarg'
p1584
F6.3187160369013022e-05
sS'(55'
p1585
F3.1593580184506511e-05
sS'(50'
p1586
F6.3187160369013022e-05
sS'vieir'
p1587
F3.1593580184506511e-05
sS'funch'
p1588
F3.1593580184506511e-05
sS'garrafinh'
p1589
F6.3187160369013022e-05
sS'canela;'
p1590
F3.1593580184506511e-05
sS'g);'
p1591
F6.3187160369013022e-05
sS'necessite,'
p1592
F3.1593580184506511e-05
sS'curcuma,'
p1593
F3.1593580184506511e-05
sS'ferrug'
p1594
F3.1593580184506511e-05
sS'canela,'
p1595
F3.1593580184506511e-05
sS'suspir'
p1596
F6.3187160369013022e-05
sS'g).'
p1597
F3.1593580184506511e-05
sS'g),'
p1598
F3.1593580184506511e-05
sS'sent'
p1599
F9.4780740553519519e-05
sS'ingredient'
p1600
F3.1593580184506511e-05
sS'ovos;'
p1601
F0.00012637432073802604
sS'ovos.'
p1602
F0.00015796790092253255
sS'ovos,'
p1603
F3.1593580184506511e-05
sS'assad'
p1604
F0.00018956148110703904
sS'pequenos;'
p1605
F3.1593580184506511e-05
sS'ajinomot'
p1606
F3.1593580184506511e-05
sS'chuchu'
p1607
F0.00018956148110703904
sS'min'
p1608
F0.00015796790092253255
sS'queijo,'
p1609
F6.3187160369013022e-05
sS'contrafil'
p1610
F9.4780740553519519e-05
sS'queijo.'
p1611
F3.1593580184506511e-05
sS'sol\xc3\xbavel'
p1612
F9.4780740553519519e-05
sS'redond'
p1613
F0.00012637432073802604
sS'acim'
p1614
F3.1593580184506511e-05
sS'folh'
p1615
F0.0034121066599267029
sS'(farinh'
p1616
F6.3187160369013022e-05
sS'bals\xc3\xa2n'
p1617
F3.1593580184506511e-05
sS'bals\xc3\xa2m'
p1618
F0.00015796790092253255
sS'grande:'
p1619
F3.1593580184506511e-05
sS'tr\xc3\xaas'
p1620
F3.1593580184506511e-05
sS'm\xc3\xa9dios,'
p1621
F6.3187160369013022e-05
sS'(duzentos)'
p1622
F3.1593580184506511e-05
sS'su\xc3\xadna,'
p1623
F3.1593580184506511e-05
sS'barbant'
p1624
F6.3187160369013022e-05
sS'batidos.'
p1625
F3.1593580184506511e-05
sS'escolh'
p1626
F0.00015796790092253255
sS';'
F9.4780740553519519e-05
sS'alcool'
p1627
F3.1593580184506511e-05
sS'condensado)'
p1628
F9.4780740553519519e-05
sS'confeiteir'
p1629
F0.00022115506129154555
sS'derretida.'
p1630
F3.1593580184506511e-05
sS'lagart'
p1631
F0.00022115506129154555
sS'amanhec'
p1632
F0.00022115506129154555
sS'condensado;'
p1633
F6.3187160369013022e-05
sS'30'
p1634
F0.0002843422216605586
sS'36'
p1635
F3.1593580184506511e-05
sS'35'
p1636
F3.1593580184506511e-05
sS'cozinha)'
p1637
F3.1593580184506511e-05
sS'cheia)'
p1638
F6.3187160369013022e-05
sS'extra\xc3\xadd'
p1639
F3.1593580184506511e-05
sS'br\xc3\xb3colos,'
p1640
F3.1593580184506511e-05
sS'grandes;'
p1641
F6.3187160369013022e-05
sS'demolh'
p1642
F6.3187160369013022e-05
sS'urucum'
p1643
F6.3187160369013022e-05
sS'alhos'
p1644
F0.00018956148110703904
sS'(dez)'
p1645
F3.1593580184506511e-05
sS'imers\xc3\xa3o).'
p1646
F3.1593580184506511e-05
sS'grandes,'
p1647
F0.00012637432073802604
sS'(ma'
p1648
F3.1593580184506511e-05
sS'italian'
p1649
F0.00053709086313661063
sS'use'
p1650
F6.3187160369013022e-05
sS'carne-do-sol'
p1651
F3.1593580184506511e-05
sS'che'
p1652
F0.00072665234424364969
sS'\xc3\xb3le'
p1653
F0.0073613041829900163
sS'uso'
p1654
F3.1593580184506511e-05
sS'g)'
p1655
F0.00034752938202957156
sS'aten\xc3\xa7\xc3\xa3'
p1656
F3.1593580184506511e-05
sS'fibr'
p1657
F3.1593580184506511e-05
sS'mel\xc3\xa3'
p1658
F0.00012637432073802604
sS'necess\xc3\xa1ri'
p1659
F0.00015796790092253255
sS'abrir)'
p1660
F3.1593580184506511e-05
sS'parmesa'
p1661
F3.1593580184506511e-05
sS'soufl\xc3\xa9'
p1662
F3.1593580184506511e-05
sS'gril'
p1663
F3.1593580184506511e-05
sS'1/4'
p1664
F0.001864021230885884
sS'1/3'
p1665
F0.00025274864147605209
sS'1/2'
p1666
F0.017723998483508151
sS'alho,'
p1667
F0.00056868444332111719
sS'alho)'
p1668
F3.1593580184506511e-05
sS'alho('
p1669
F3.1593580184506511e-05
sS'talo)'
p1670
F3.1593580184506511e-05
sS'150'
p1671
F0.0012637432073802604
sS'pernil,'
p1672
F3.1593580184506511e-05
sS'kil'
p1673
F0.0014848982686718058
sS'(cerc'
p1674
F3.1593580184506511e-05
sS'ovos'
p1675
F0.0053709086313661067
sS'salam'
p1676
F0.00012637432073802604
sS'chocolate,'
p1677
F3.1593580184506511e-05
sS'cobertura:'
p1678
F3.1593580184506511e-05
sS'pouc'
p1679
F0.00022115506129154555
sS'envolv'
p1680
F3.1593580184506511e-05
sS'pepin'
p1681
F0.00022115506129154555
sS'(saint'
p1682
F3.1593580184506511e-05
sS'ma\xc3\xa7\xc3\xa3s'
p1683
F0.0002843422216605586
sS'batidinh'
p1684
F0.00031593580184506511
sS'tac'
p1685
F3.1593580184506511e-05
sS'tal'
p1686
F0.00075824592442815615
sS'amassado;'
p1687
F3.1593580184506511e-05
sS'sir'
p1688
F9.4780740553519519e-05
sS'amarelo,'
p1689
F3.1593580184506511e-05
sS'sementes;'
p1690
F6.3187160369013022e-05
sS'dissolv'
p1691
F0.00060027802350562365
sS'sementes,'
p1692
F0.00047390370276759761
sS'(600'
p1693
F3.1593580184506511e-05
sS'sementes)'
p1694
F0.00015796790092253255
sS'espec'
p1695
F3.1593580184506511e-05
sS'biquinh'
p1696
F3.1593580184506511e-05
sS'salpiqu'
p1697
F3.1593580184506511e-05
sS'meias-lu'
p1698
F3.1593580184506511e-05
sS'espremedor'
p1699
F9.4780740553519519e-05
sS'express'
p1700
F3.1593580184506511e-05
sS'reserve.'
p1701
F3.1593580184506511e-05
sS'peneir'
p1702
F0.00047390370276759761
sS'raminh'
p1703
F0.00022115506129154555
sS'5cm'
p1704
F3.1593580184506511e-05
sS'colorau'
p1705
F0.00041071654239858459
sS'alfac'
p1706
F0.00012637432073802604
sS'light'
p1707
F0.00034752938202957156
sS'batat'
p1708
F0.0034752938202957159
sS'parmez\xc3\xa3'
p1709
F0.00012637432073802604
sS'grossura)'
p1710
F3.1593580184506511e-05
sS'3/4'
p1711
F0.0002843422216605586
sS'70gr.'
p1712
F3.1593580184506511e-05
sS'mexilh\xc3\xb5'
p1713
F6.3187160369013022e-05
sS'135'
p1714
F3.1593580184506511e-05
sS'(dill)'
p1715
F3.1593580184506511e-05
sS'(mesm'
p1716
F3.1593580184506511e-05
sS'lb'
p1717
F3.1593580184506511e-05
sS'(picada)'
p1718
F6.3187160369013022e-05
sS'presunto;'
p1719
F6.3187160369013022e-05
sS'anchova,'
p1720
F3.1593580184506511e-05
sS'calda)'
p1721
F6.3187160369013022e-05
sS'presunto.'
p1722
F3.1593580184506511e-05
sS'e/ou'
p1723
F3.1593580184506511e-05
sS'salsich\xc3\xa3'
p1724
F3.1593580184506511e-05
sS'serra'
p1725
F3.1593580184506511e-05
sS'dam'
p1726
F3.1593580184506511e-05
sS'dar'
p1727
F9.4780740553519519e-05
sS'palet'
p1728
F6.3187160369013022e-05
sS'(grande)'
p1729
F3.1593580184506511e-05
sS'talharim'
p1730
F9.4780740553519519e-05
sS'berinjel'
p1731
F0.00078983950461266272
sS'(farelo)'
p1732
F3.1593580184506511e-05
sS'vontad'
p1733
F9.4780740553519519e-05
sS'seguint'
p1734
F3.1593580184506511e-05
sS'beringel'
p1735
F0.00015796790092253255
sS'fresca,'
p1736
F6.3187160369013022e-05
sS'18x18'
p1737
F3.1593580184506511e-05
sS'barbas,'
p1738
F3.1593580184506511e-05
sS'conhaqu'
p1739
F0.00018956148110703904
sS'pint'
p1740
F3.1593580184506511e-05
sS'salsichas.'
p1741
F3.1593580184506511e-05
sS'metr'
p1742
F3.1593580184506511e-05
sS'marrom'
p1743
F3.1593580184506511e-05
sS'cristal'
p1744
F6.3187160369013022e-05
sS'700'
p1745
F0.0002843422216605586
sS'cerveja,'
p1746
F3.1593580184506511e-05
sS'coe.'
p1747
F3.1593580184506511e-05
sS'\xc3\xa1lcool'
p1748
F6.3187160369013022e-05
sS'franc\xc3\xaas)'
p1749
F3.1593580184506511e-05
sS'80'
p1750
F0.00022115506129154555
sS'banan'
p1751
F0.00050549728295210417
sS'(lagarto)'
p1752
F3.1593580184506511e-05
sS'medida)'
p1753
F3.1593580184506511e-05
sS'moquec'
p1754
F3.1593580184506511e-05
sS'azeite;'
p1755
F6.3187160369013022e-05
sS'rea'
p1756
F3.1593580184506511e-05
sS'azeite,'
p1757
F9.4780740553519519e-05
sS'azeite.'
p1758
F3.1593580184506511e-05
sS'manjeron'
p1759
F0.00012637432073802604
sS'franc'
p1760
F3.1593580184506511e-05
sS'bananeira.'
p1761
F3.1593580184506511e-05
sS'branco,'
p1762
F9.4780740553519519e-05
sS'oreg\xc3\xa3'
p1763
F3.1593580184506511e-05
sS'x\xc3\xadcara,'
p1764
F3.1593580184506511e-05
sS'100ml'
p1765
F0.00012637432073802604
sS'branco;'
p1766
F3.1593580184506511e-05
sS'lts'
p1767
F3.1593580184506511e-05
sS'g'
F0.0040123846834323263
sS'caip'
p1768
F0.00012637432073802604
sS'shimej'
p1769
F3.1593580184506511e-05
sS'm\xc3\xa3os),'
p1770
F3.1593580184506511e-05
sS'caix'
p1771
F0.00022115506129154555
sS'(cha)'
p1772
F6.3187160369013022e-05
sS'coch\xc3\xa3'
p1773
F3.1593580184506511e-05
sS'bolo.'
p1774
F3.1593580184506511e-05
sS'450'
p1775
F3.1593580184506511e-05
sS'pincel'
p1776
F0.00025274864147605209
sS'tortinh'
p1777
F3.1593580184506511e-05
sS'454'
p1778
F3.1593580184506511e-05
sS'sach'
p1779
F0.00022115506129154555
sS'chouri\xc3\xa7o.'
p1780
F3.1593580184506511e-05
sS'desmanch'
p1781
F3.1593580184506511e-05
sS'alho'
p1782
F0.0093516997346139268
sS"d'\xc3\xa1gu"
p1783
F6.3187160369013022e-05
sS'bif'
p1784
F0.00069505876405914313
sS'pront'
p1785
F0.00041071654239858459
sS'ab\xc3\xb3bor'
p1786
F0.00050549728295210417
sS'chantily'
p1787
F3.1593580184506511e-05
sS'decilitr'
p1788
F6.3187160369013022e-05
sS'macaxeir'
p1789
F6.3187160369013022e-05
sS'costelinh'
p1790
F0.00022115506129154555
sS'framboes'
p1791
F3.1593580184506511e-05
sS'decorar)'
p1792
F3.1593580184506511e-05
sS'frutas;'
p1793
F3.1593580184506511e-05
sS'(alcatra,'
p1794
F3.1593580184506511e-05
sS'agri\xc3\xb5'
p1795
F3.1593580184506511e-05
sS'frutas,'
p1796
F3.1593580184506511e-05
sS'a\xc3\xa7\xc3\xbacar).'
p1797
F3.1593580184506511e-05
sS'150g'
p1798
F0.00050549728295210417
sS'bem'
p1799
F0.00334891949955769
sS'tablete(200'
p1800
F3.1593580184506511e-05
sS'cobertur'
p1801
F9.4780740553519519e-05
sS'fina.'
p1802
F3.1593580184506511e-05
sS'1/2kg'
p1803
F3.1593580184506511e-05
sS'escorrido;'
p1804
F3.1593580184506511e-05
sS'(vej'
p1805
F3.1593580184506511e-05
sS'peda\xc3\xa7o)'
p1806
F3.1593580184506511e-05
sS's\xc3\xb3l'
p1807
F3.1593580184506511e-05
sS'limpo)'
p1808
F6.3187160369013022e-05
sS'(ac\xc3\xa9m'
p1809
F3.1593580184506511e-05
sS'limpo,'
p1810
F3.1593580184506511e-05
sS'cavac'
p1811
F3.1593580184506511e-05
sS'ponkan'
p1812
F3.1593580184506511e-05
sS'(cora\xc3\xa7\xc3\xa3'
p1813
F3.1593580184506511e-05
sS'(fil'
p1814
F3.1593580184506511e-05
sS'320'
p1815
F3.1593580184506511e-05
sS'p\xc3\xb3)'
p1816
F3.1593580184506511e-05
sS'latinh'
p1817
F0.00015796790092253255
sS'divers'
p1818
F3.1593580184506511e-05
sS'lamen'
p1819
F0.00015796790092253255
sS'am\xc3\xaaijo'
p1820
F3.1593580184506511e-05
sS'enfarinh'
p1821
F3.1593580184506511e-05
sS'alecrim'
p1822
F0.00031593580184506511
sS'maisena;'
p1823
F0.00015796790092253255
sS'leit\xc3\xa3'
p1824
F3.1593580184506511e-05
sS'fervent'
p1825
F0.00072665234424364969
sS'p\xc3\xa1pric'
p1826
F0.00031593580184506511
sS'champanh'
p1827
F9.4780740553519519e-05
sS'p\xc3\xaasseg'
p1828
F0.00018956148110703904
sS'(15gr.)'
p1829
F3.1593580184506511e-05
sS'doce,'
p1830
F3.1593580184506511e-05
sS'doce.'
p1831
F3.1593580184506511e-05
sS'morango,'
p1832
F6.3187160369013022e-05
sS'indi'
p1833
F6.3187160369013022e-05
sS'dend'
p1834
F0.00037912296221407808
sS'(1cm'
p1835
F3.1593580184506511e-05
sS'encontr'
p1836
F6.3187160369013022e-05
sS'esfarel'
p1837
F0.00053709086313661063
sS'gema)'
p1838
F3.1593580184506511e-05
sS'chic\xc3\xb3r'
p1839
F3.1593580184506511e-05
sS'"cre'
p1840
F6.3187160369013022e-05
sS'goian'
p1841
F3.1593580184506511e-05
sS'goiab'
p1842
F0.00012637432073802604
sS'gema;'
p1843
F3.1593580184506511e-05
sS'(1250'
p1844
F3.1593580184506511e-05
sS'rasg'
p1845
F3.1593580184506511e-05
sS'durant'
p1846
F3.1593580184506511e-05
sS'naturais)'
p1847
F3.1593580184506511e-05
sS'('
F0.0004423101225830911
sS'(500'
p1848
F3.1593580184506511e-05
sS'jal'
p1849
F3.1593580184506511e-05
sS'rasp'
p1850
F0.0002843422216605586
sS'avisem);'
p1851
F3.1593580184506511e-05
sS'a\xc3\xa7uc'
p1852
F0.00050549728295210417
sS',azeit'
p1853
F3.1593580184506511e-05
sS'juntas)'
p1854
F3.1593580184506511e-05
sS'extravirgem,'
p1855
F3.1593580184506511e-05
sS'juntas,'
p1856
F3.1593580184506511e-05
sS'espinh'
p1857
F3.1593580184506511e-05
sS'calabres'
p1858
F0.00075824592442815615
sS'120'
p1859
F6.3187160369013022e-05
sS'125'
p1860
F0.00012637432073802604
sS'grs.'
p1861
F0.00072665234424364969
sS'natural;'
p1862
F3.1593580184506511e-05
sS'abrirem.'
p1863
F3.1593580184506511e-05
sS'qu\xc3\xadmic'
p1864
F6.3187160369013022e-05
sS'grosso,'
p1865
F3.1593580184506511e-05
sS'grosso)'
p1866
F3.1593580184506511e-05
sS'franc\xc3\xaas'
p1867
F0.00022115506129154555
sS'600g'
p1868
F3.1593580184506511e-05
sS'chester,'
p1869
F3.1593580184506511e-05
sS'gram'
p1870
F0.010046758498673069
sS'gran'
p1871
F6.3187160369013022e-05
sS'rein'
p1872
F0.0036016681410337421
sS'picadinha.'
p1873
F9.4780740553519519e-05
sS'picadinha,'
p1874
F6.3187160369013022e-05
sS'farof'
p1875
F3.1593580184506511e-05
sS'rechei'
p1876
F9.4780740553519519e-05
sS'agri\xc3\xa3'
p1877
F0.00025274864147605209
sS'cebola\xe2\x80\xa6)'
p1878
F3.1593580184506511e-05
sS'picadinha;'
p1879
F9.4780740553519519e-05
sS'm\xc3\xa1xim'
p1880
F3.1593580184506511e-05
sS'bombons'
p1881
F6.3187160369013022e-05
sS'2,5'
p1882
F3.1593580184506511e-05
sS'(sopa)'
p1883
F0.0145646404650575
sS'amassados;'
p1884
F3.1593580184506511e-05
sS'caju'
p1885
F3.1593580184506511e-05
sS'gravatinh'
p1886
F3.1593580184506511e-05
sS'milho),'
p1887
F3.1593580184506511e-05
sS'lul'
p1888
F0.00012637432073802604
sS'peter)'
p1889
F3.1593580184506511e-05
sS'(150ml)'
p1890
F3.1593580184506511e-05
sS'ess\xc3\xaanc'
p1891
F0.00018956148110703904
sS'magr'
p1892
F0.00018956148110703904
sS'defumada,'
p1893
F3.1593580184506511e-05
sS'\xc2\xbc'
p1894
F0.00031593580184506511
sS'piment'
p1895
F0.010457475041071654
sS'jog'
p1896
F3.1593580184506511e-05
sS'longitudinal'
p1897
F3.1593580184506511e-05
sS'magg'
p1898
F3.1593580184506511e-05
sS'(us'
p1899
F0.00015796790092253255
sS'liqu'
p1900
F6.3187160369013022e-05
sS'compriment'
p1901
F3.1593580184506511e-05
sS'galinh'
p1902
F0.00199039555162391
sS'cm'
p1903
F0.00018956148110703904
sS'cl'
p1904
F6.3187160369013022e-05
sS'meu)'
p1905
F3.1593580184506511e-05
sS'grs'
p1906
F0.00018956148110703904
sS'x\xc3\xadcaras(ch\xc3\xa1)'
p1907
F3.1593580184506511e-05
sS'incolor'
p1908
F0.00015796790092253255
sS'shitak'
p1909
F3.1593580184506511e-05
sS'carameliz'
p1910
F9.4780740553519519e-05
sS'pimentinh'
p1911
F3.1593580184506511e-05
sS'compot'
p1912
F3.1593580184506511e-05
sS'(90'
p1913
F3.1593580184506511e-05
sS'guarnec'
p1914
F3.1593580184506511e-05
sS'conhec'
p1915
F3.1593580184506511e-05
sS'quib'
p1916
F6.3187160369013022e-05
sS'quil'
p1917
F0.0012637432073802604
sS'caranguej'
p1918
F6.3187160369013022e-05
sS'untar.'
p1919
F3.1593580184506511e-05
sS'800g'
p1920
F0.00012637432073802604
sS'untar)'
p1921
F3.1593580184506511e-05
sS'adoc'
p1922
F0.00022115506129154555
sS'al'
p1923
F3.1593580184506511e-05
sS'cor'
p1924
F3.1593580184506511e-05
sS'biscoit'
p1925
F0.00047390370276759761
sS'bananas-da-terr'
p1926
F3.1593580184506511e-05
sS'sopa)'
p1927
F0.00069505876405914313
sS'sopa,'
p1928
F0.0012321496271957538
sS'coalh'
p1929
F6.3187160369013022e-05
sS'(molh'
p1930
F3.1593580184506511e-05
sS'pururuc'
p1931
F3.1593580184506511e-05
sS'(cr\xc3\xba'
p1932
F3.1593580184506511e-05
sS'duas'
p1933
F3.1593580184506511e-05
sS'a\xc3\xa7afr\xc3\xa3'
p1934
F0.00022115506129154555
sS'ave'
p1935
F0.00012637432073802604
sS'virg'
p1936
F0.00025274864147605209
sS'vagens'
p1937
F3.1593580184506511e-05
sS"bananas-d'\xc3\xa1gu"
p1938
F3.1593580184506511e-05
sS'fog\xc3\xa3'
p1939
F0.00012637432073802604
sS'750g'
p1940
F9.4780740553519519e-05
sS')'
F0.00025274864147605209
sS'pit'
p1941
F0.0013901175281182863
sS'fil\xc3\xa9s'
p1942
F0.00047390370276759761
sS'cinc'
p1943
F3.1593580184506511e-05
sS'defum'
p1944
F0.00075824592442815615
sS'lasc'
p1945
F9.4780740553519519e-05
sS'l\xc3\xa2min'
p1946
F0.00015796790092253255
sS'coc\xc3\xb4'
p1947
F3.1593580184506511e-05
sS'ingl\xc3\xaas;'
p1948
F0.00012637432073802604
sS'peit'
p1949
F0.0013269303677492733
sS'tomates;'
p1950
F3.1593580184506511e-05
sS'azeitonas,'
p1951
F3.1593580184506511e-05
sS'peix'
p1952
F0.00060027802350562365
sS'acompanh'
p1953
F6.3187160369013022e-05
sS'at\xc3\xa9'
p1954
F3.1593580184506511e-05
sS'centei'
p1955
F6.3187160369013022e-05
sS'maquin'
p1956
F3.1593580184506511e-05
sS'alcaparras,'
p1957
F3.1593580184506511e-05
sS'cru,'
p1958
F6.3187160369013022e-05
sS'cru.'
p1959
F3.1593580184506511e-05
sS'empanar.'
p1960
F6.3187160369013022e-05
sS'milho-verd'
p1961
F3.1593580184506511e-05
sS'cru;'
p1962
F3.1593580184506511e-05
sS'40'
p1963
F6.3187160369013022e-05
sS'codorn'
p1964
F6.3187160369013022e-05
sS'chavroux'
p1965
F3.1593580184506511e-05
sS'assado)'
p1966
F3.1593580184506511e-05
sS'champignons'
p1967
F6.3187160369013022e-05
sS'rapid'
p1968
F3.1593580184506511e-05
sS'trigo,'
p1969
F9.4780740553519519e-05
sS'requeij\xc3\xa3o)'
p1970
F9.4780740553519519e-05
sS'trigo.'
p1971
F0.00012637432073802604
sS'amendoim'
p1972
F0.00018956148110703904
sS'(qu'
p1973
F9.4780740553519519e-05
sS'750ml'
p1974
F3.1593580184506511e-05
sS'nacional'
p1975
F3.1593580184506511e-05
sS'evaporar)'
p1976
F3.1593580184506511e-05
sS'trigo;'
p1977
F0.0002843422216605586
sS'vidr'
p1978
F0.00088462024516618219
sS'baunilh'
p1979
F0.00053709086313661063
sS'peda\xc3\xa7os,'
p1980
F6.3187160369013022e-05
sS'peda\xc3\xa7os)'
p1981
F3.1593580184506511e-05
sS'(400'
p1982
F3.1593580184506511e-05
sS'fati'
p1983
F0.0024327056742070013
sS'picada('
p1984
F3.1593580184506511e-05
sS'pacot'
p1985
F0.001674459749778845
sS'picada.'
p1986
F0.00018956148110703904
sS'cafezinh'
p1987
F6.3187160369013022e-05
sS'p\xc3\xaar'
p1988
F3.1593580184506511e-05
sS'frescos,'
p1989
F3.1593580184506511e-05
sS'almeir\xc3\xb5'
p1990
F3.1593580184506511e-05
sS'picada;'
p1991
F0.00041071654239858459
sS'rechaud'
p1992
F3.1593580184506511e-05
sS'desossado,'
p1993
F3.1593580184506511e-05
sS'l.'
p1994
F3.1593580184506511e-05
sS'(ou'
p1995
F0.0004423101225830911
sS'(os'
p1996
F3.1593580184506511e-05
sS'400ml.'
p1997
F3.1593580184506511e-05
sS'fleischman'
p1998
F3.1593580184506511e-05
sS'pessoas)'
p1999
F0.00018956148110703904
sS'couve-manteig'
p2000
F3.1593580184506511e-05
sS'chulet'
p2001
F3.1593580184506511e-05
sS'desnat'
p2002
F0.00041071654239858459
sS'portobell'
p2003
F3.1593580184506511e-05
sS'(medida)'
p2004
F0.00012637432073802604
sS'bicarbonat'
p2005
F6.3187160369013022e-05
sS'cubinhos;'
p2006
F6.3187160369013022e-05
sS'p\xc3\xa3ozinh'
p2007
F0.00012637432073802604
sS'350g'
p2008
F0.00012637432073802604
sS'coziment'
p2009
F6.3187160369013022e-05
sS'descascadas,'
p2010
F6.3187160369013022e-05
sS'usad'
p2011
F6.3187160369013022e-05
sS's\xc3\xa1lv'
p2012
F3.1593580184506511e-05
sS'asparg'
p2013
F6.3187160369013022e-05
sS'conserva)'
p2014
F3.1593580184506511e-05
sS'conserva,'
p2015
F6.3187160369013022e-05
sS'usar'
p2016
F0.00012637432073802604
sS'tabasc'
p2017
F3.1593580184506511e-05
sS'abobrinh'
p2018
F0.00063187160369013022
sS'(amanhecido)'
p2019
F3.1593580184506511e-05
sS'til\xc3\xa1p'
p2020
F3.1593580184506511e-05
sS'cheir'
p2021
F0.0013585239479337798
sS'tiras.'
p2022
F3.1593580184506511e-05
sS'ervas'
p2023
F0.00018956148110703904
sS'rodel'
p2024
F0.0036016681410337421
sS'umedec'
p2025
F0.00012637432073802604
sS'(lata)'
p2026
F3.1593580184506511e-05
sS'mam\xc3\xa3'
p2027
F6.3187160369013022e-05
sS'dissolvidos.'
p2028
F3.1593580184506511e-05
sS'enfeit'
p2029
F6.3187160369013022e-05
sS'acerol'
p2030
F6.3187160369013022e-05
sS'facilmente.'
p2031
F3.1593580184506511e-05
sS'alface,'
p2032
F6.3187160369013022e-05
sS'celofan'
p2033
F3.1593580184506511e-05
sS'h)'
p2034
F3.1593580184506511e-05
sS'1.500'
p2035
F3.1593580184506511e-05
sS'barquet'
p2036
F3.1593580184506511e-05
sS'(lomb'
p2037
F3.1593580184506511e-05
sS'arredondadas,'
p2038
F3.1593580184506511e-05
sS'vai'
p2039
F3.1593580184506511e-05
sS'por\xc3\xa7\xc3\xa3'
p2040
F9.4780740553519519e-05
sS'vac'
p2041
F0.00018956148110703904
sS'*'
F0.0004423101225830911
sS'vag'
p2042
F0.00022115506129154555
sS'vaz'
p2043
F3.1593580184506511e-05
sS'(grandes)'
p2044
F3.1593580184506511e-05
sS'var'
p2045
F6.3187160369013022e-05
sS'branca,'
p2046
F3.1593580184506511e-05
sS'(receit'
p2047
F3.1593580184506511e-05
sS'branca)'
p2048
F3.1593580184506511e-05
sS'dentro)'
p2049
F3.1593580184506511e-05
sS'branc'
p2050
F0.0028750157967900921
sS'(20cm'
p2051
F3.1593580184506511e-05
sS'coco)'
p2052
F6.3187160369013022e-05
sS'gelada.'
p2053
F3.1593580184506511e-05
sS'dur'
p2054
F9.4780740553519519e-05
sS'sals\xc3\xa3'
p2055
F0.00031593580184506511
sS'seis'
p2056
F6.3187160369013022e-05
sS'ducoc'
p2057
F3.1593580184506511e-05
sS'clara;'
p2058
F6.3187160369013022e-05
sS'preta,'
p2059
F6.3187160369013022e-05
sS'caj\xc3\xa1s'
p2060
F3.1593580184506511e-05
sS'talos,'
p2061
F3.1593580184506511e-05
sS'merluz'
p2062
F6.3187160369013022e-05
sS'clara)'
p2063
F6.3187160369013022e-05
sS'filtr'
p2064
F3.1593580184506511e-05
sS'(m\xc3\xa9d'
p2065
F3.1593580184506511e-05
sS'ma\xc3\xa7\xc3\xa3'
p2066
F0.00031593580184506511
sS'\xc2\xbd'
p2067
F0.0032541387590041704
sS'condiment'
p2068
F6.3187160369013022e-05
sS'chucrute,'
p2069
F3.1593580184506511e-05
sS'cremos'
p2070
F0.00047390370276759761
sS'pic'
p2071
F0.024642992543915075
sS'm\xc3\xa9d'
p2072
F0.0037912296221407809
sS'pir'
p2073
F6.3187160369013022e-05
sS'pernil'
p2074
F9.4780740553519519e-05
sS'p\xc3\xaassego,'
p2075
F9.4780740553519519e-05
sS'copos(200'
p2076
F3.1593580184506511e-05
sS'buqu'
p2077
F3.1593580184506511e-05
sS'45'
p2078
F3.1593580184506511e-05
sS'oregan'
p2079
F0.00031593580184506511
sS'ingles'
p2080
F0.00015796790092253255
sS'4.'
p2081
F6.3187160369013022e-05
sS'ingl\xc3\xaas,'
p2082
F6.3187160369013022e-05
sS'4)'
p2083
F3.1593580184506511e-05
sS'palmit'
p2084
F0.0002843422216605586
sS'filezinh'
p2085
F3.1593580184506511e-05
sS'atum,'
p2086
F3.1593580184506511e-05
sS'vermut'
p2087
F6.3187160369013022e-05
sS'1kg'
p2088
F0.00034752938202957156
sS'd\xc3\xbaz'
p2089
F3.1593580184506511e-05
sS'(deix'
p2090
F3.1593580184506511e-05
sS'reduz'
p2091
F3.1593580184506511e-05
sS'piment\xc3\xa3o,'
p2092
F0.00015796790092253255
sS'junt'
p2093
F6.3187160369013022e-05
sS'provolon'
p2094
F0.0004423101225830911
sS'\xe2\x80\x93'
p2095
F6.3187160369013022e-05
sS'(daquel'
p2096
F6.3187160369013022e-05
sS'requeij\xc3\xa3o).'
p2097
F3.1593580184506511e-05
sS'colher(sopa)'
p2098
F9.4780740553519519e-05
sS'queij'
p2099
F0.0077720207253886009
sS'extrat'
p2100
F0.00066346518387463667
sS'banh'
p2101
F0.00034752938202957156
sS'culin\xc3\xa1ri'
p2102
F3.1593580184506511e-05
s.